(dp0
S'aln'
p1
I5
sS'scl'
p2
I56
sS'sco'
p3
I926
sS'nwe'
p4
I12
sS'ptl'
p5
I38
sS'nwa'
p6
I52
sS'xat'
p7
I18
sS'nwo'
p8
I26
sS'nwh'
p9
I25
sS'nwi'
p10
I43
sS'sch'
p11
I307
sS'rej'
p12
I87
sS'auc'
p13
I23
sS'aub'
p14
I1
sS'xts'
p15
I4
sS'xtr'
p16
I255
sS'aug'
p17
I743
sS'auf'
p18
I1
sS'tya'
p19
I5
sS'pth'
p20
I28
sS'aum'
p21
I2
sS'aul'
p22
I131
sS'xty'
p23
I13
sS'aun'
p24
I298
sS'alf'
p25
I438
sS'xte'
p26
I93
sS'aur'
p27
I478
sS'aut'
p28
I457
sS'xta'
p29
I1
sS'auv'
p30
I1
sS'xto'
p31
I15
sS'aux'
p32
I3
sS'auz'
p33
I2
sS'mwo'
p34
I1
sS'ald'
p35
I45
sS'xti'
p36
I32
sS'ila'
p37
I109
sS'mns'
p38
I2
sS'alb'
p39
I13
sS'ska'
p40
I1
sS'fiv'
p41
I156
sS'fus'
p42
I247
sS'upo'
p43
I328
sS'upl'
p44
I72
sS'uph'
p45
I5
sS'upi'
p46
I191
sS'upe'
p47
I234
sS'upb'
p48
I17
sS'upa'
p49
I66
sS'kpe'
p50
I3
sS'mdr'
p51
I2
sS'slu'
p52
I39
sS'upw'
p53
I11
sS'upt'
p54
I156
sS'upu'
p55
I17
sS'upr'
p56
I24
sS'ups'
p57
I146
sS'upp'
p58
I656
sS'sbo'
p59
I14
sS'ndb'
p60
I3
sS'aly'
p61
I40
sS'ajo'
p62
I17
sS'alv'
p63
I11
sS'ucy'
p64
I30
sS'ecd'
p65
I5
sS'mna'
p66
I21
sS'psu'
p67
I5
sS'n'
p68
I27
sS'ptu'
p69
I45
sS'nen'
p70
I150
sS'neo'
p71
I19
sS'nel'
p72
I518
sS'nem'
p73
I86
sS'oze'
p74
I78
sS'nei'
p75
I364
sS'nef'
p76
I67
sS'neg'
p77
I78
sS'ned'
p78
I3729
sS'nee'
p79
I416
sS'neb'
p80
I1
sS'nec'
p81
I568
sS'lsr'
p82
I1
sS'nea'
p83
I795
sS'quy'
p84
I5
sS'gna'
p85
I168
sS'nez'
p86
I3
sS'nex'
p87
I710
sS'rld'
p88
I321
sS'nev'
p89
I1200
sS'new'
p90
I1029
sS'net'
p91
I376
sS'neu'
p92
I6
sS'ner'
p93
I1639
sS'nes'
p94
I2333
sS'nep'
p95
I23
sS'neq'
p96
I10
sS'mee'
p97
I252
sS'med'
p98
I1941
sS'meg'
p99
I3
sS'mef'
p100
I16
sS'mea'
p101
I916
sS'mec'
p102
I37
sS'meb'
p103
I46
sS'mem'
p104
I689
sS'mel'
p105
I257
sS'meo'
p106
I3
sS'men'
p107
I3901
sS'mei'
p108
I3
sS'meh'
p109
I21
sS'mek'
p110
I3
sS'met'
p111
I1017
sS'mew'
p112
I99
sS'mev'
p113
I1
sS'mep'
p114
I2
sS'mes'
p115
I798
sS'mer'
p116
I1166
sS'aue'
p117
I1
sS'mex'
p118
I1
sS'aud'
p119
I119
sS'dry'
p120
I91
sS'gli'
p121
I348
sS'aky'
p122
I1
sS'fum'
p123
I12
sS'wde'
p124
I34
sS'glo'
p125
I186
sS'aks'
p126
I47
sS'gla'
p127
I662
sS'dru'
p128
I73
sS'gle'
p129
I399
sS'gno'
p130
I115
sS'dri'
p131
I325
sS'gly'
p132
I709
sS'aki'
p133
I730
sS'wds'
p134
I1
sS'akn'
p135
I42
sS'dro'
p136
I443
sS'akl'
p137
I8
sS'dra'
p138
I677
sS'lml'
p139
I28
sS'aka'
p140
I23
sS'ghi'
p141
I107
sS'dre'
p142
I1597
sS'akf'
p143
I142
sS'ake'
p144
I2911
sS'bwe'
p145
I3
sS'dyn'
p146
I6
sS'lmn'
p147
I7
sS'wfo'
p148
I1
sS'bru'
p149
I366
sS'lmo'
p150
I368
sS'bro'
p151
I1080
sS'orf'
p152
I11
sS'bri'
p153
I694
sS'lma'
p154
I17
sS'gcl'
p155
I1
sS'bre'
p156
I704
sS'rlw'
p157
I1
sS'bra'
p158
I466
sS'dne'
p159
I256
sS'dna'
p160
I4
sS'aup'
p161
I6
sS'dni'
p162
I43
sS'aus'
p163
I827
sS'orc'
p164
I260
sS'vol'
p165
I177
sS'lwi'
p166
I2
sS'quo'
p167
I17
sS'osq'
p168
I1
sS'lwa'
p169
I385
sS'von'
p170
I2
sS'nka'
p171
I4
sS'kgr'
p172
I9
sS'rla'
p173
I103
sS'nke'
p174
I96
sS'nkf'
p175
I22
sS'nki'
p176
I206
sS'nkl'
p177
I588
sS'nkm'
p178
I1
sS'nkn'
p179
I58
sS'voi'
p180
I474
sS'kga'
p181
I1
sS'nkr'
p182
I2
sS'nks'
p183
I123
sS'jpg'
p184
I14
sS'nky'
p185
I4
sS'ssh'
p186
I2
sS'me'
p187
I8011
sS'eru'
p188
I32
sS'erv'
p189
I1619
sS'erw'
p190
I263
sS'erp'
p191
I215
sS'g'
p192
I4
sS'err'
p193
I739
sS'ers'
p194
I4177
sS'xhi'
p195
I34
sS'xho'
p196
I4
sS'ery'
p197
I2515
sS'erd'
p198
I184
sS'ere'
p199
I11015
sS'erf'
p200
I551
sS'erg'
p201
I718
sS'tna'
p202
I1
sS'era'
p203
I1086
sS'erb'
p204
I28
sS'mr'
p205
I3336
sS'erl'
p206
I405
sS'erm'
p207
I601
sS'ern'
p208
I870
sS'ero'
p209
I206
sS'my'
p210
I9887
sS'eri'
p211
I3416
sS'erj'
p212
I3
sS'erk'
p213
I94
sS'uay'
p214
I7
sS'ygo'
p215
I10
sS'uas'
p216
I13
sS'uar'
p217
I391
sS'uat'
p218
I142
sS'uav'
p219
I2
sS'uai'
p220
I124
sS'uak'
p221
I10
sS'ual'
p222
I726
sS'uan'
p223
I38
sS'ryc'
p224
I3
sS'uab'
p225
I36
sS'uad'
p226
I72
sS'uag'
p227
I112
sS'ena'
p228
I205
sS'hod'
p229
I23
sS'enc'
p230
I2926
sS'end'
p231
I2735
sS'ene'
p232
I2204
sS'enf'
p233
I34
sS'eng'
p234
I852
sS'hon'
p235
I307
sS'eni'
p236
I845
sS'hol'
p237
I898
sS'hom'
p238
I666
sS'enl'
p239
I326
sS'hok'
p240
I12
sS'osu'
p241
I83
sS'eno'
p242
I674
sS'hov'
p243
I16
sS'how'
p244
I1927
sS'enr'
p245
I51
sS'ens'
p246
I919
sS'ent'
p247
I10254
sS'hos'
p248
I1023
sS'hop'
p249
I493
sS'mpo'
p250
I536
sS'eny'
p251
I38
sS'enz'
p252
I23
sS'hoz'
p253
I1
sS'hbr'
p254
I1
sS'lam'
p255
I296
sS'lan'
p256
I1540
sS'lah'
p257
I37
sS'lai'
p258
I1124
sS'lak'
p259
I329
sS'lad'
p260
I1624
sS'lag'
p261
I145
sS'laa'
p262
I2
sS'lab'
p263
I131
sS'lac'
p264
I1646
sS'ova'
p265
I50
sS'lax'
p266
I34
sS'lay'
p267
I561
sS'laz'
p268
I39
sS'ove'
p269
I3652
sS'lat'
p270
I1254
sS'lau'
p271
I781
sS'lav'
p272
I42
sS'law'
p273
I346
sS'lap'
p274
I133
sS'ovo'
p275
I49
sS'lar'
p276
I987
sS'las'
p277
I1387
sS'fah'
p278
I2
sS'mpu'
p279
I85
sS'gpi'
p280
I2
sS'ho'
p281
I1
sS'fan'
p282
I237
sS'ltl'
p283
I6
sS'mps'
p284
I130
sS'zeb'
p285
I2
sS'ilp'
p286
I1
sS'zea'
p287
I15
sS'zed'
p288
I166
sS'onk'
p289
I8
sS'oer'
p290
I3
sS'zen'
p291
I66
sS'zel'
p292
I9
sS'zem'
p293
I28
sS'zer'
p294
I4
sS'zes'
p295
I15
sS'xi'
p296
I5
sS'zet'
p297
I1
sS'wun'
p298
I8
sS'nib'
p299
I7
sS'fir'
p300
I1782
sS'fis'
p301
I108
sS'clo'
p302
I1155
sS'ime'
p303
I2726
sS'cli'
p304
I728
sS'uou'
p305
I56
sS'uot'
p306
I8
sS'imi'
p307
I192
sS'cle'
p308
I1031
sS'fix'
p309
I142
sS'imm'
p310
I526
sS'cla'
p311
I677
sS'imo'
p312
I71
sS'imn'
p313
I37
sS'fib'
p314
I2
sS'fic'
p315
I728
sS'ims'
p316
I751
sS'fia'
p317
I39
sS'imu'
p318
I43
sS'fig'
p319
I143
sS'fid'
p320
I177
sS'fie'
p321
I533
sS'imy'
p322
I1
sS'clu'
p323
I302
sS'uoi'
p324
I1
sS'mpy'
p325
I1
sS'fin'
p326
I1118
sS'fil'
p327
I182
sS'chc'
p328
I1
sS'zab'
p329
I14
sS'hyb'
p330
I1
sS'oks'
p331
I216
sS'hyd'
p332
I104
sS'zaa'
p333
I1
sS'osk'
p334
I1
sS'rcr'
p335
I1
sS'loy'
p336
I142
sS'l'
p337
I10
sS'hpl'
p338
I2
sS'ihi'
p339
I12
sS'mbn'
p340
I2
sS'oxc'
p341
I1
sS'xgl'
p342
I1
sS'deo'
p343
I27
sS'mdl'
p344
I2
sS'mda'
p345
I1
sS'dga'
p346
I122
sS'wso'
p347
I65
sS'mbo'
p348
I17
sS'yol'
p349
I43
sS'uga'
p350
I18
sS'gol'
p351
I104
sS'goo'
p352
I1000
sS'gon'
p353
I426
sS'goi'
p354
I449
sS'smy'
p355
I1
sS'goe'
p356
I55
sS'god'
p357
I540
sS'dst'
p358
I67
sS'dsu'
p359
I6
sS'goa'
p360
I15
sS'gob'
p361
I16
sS'smo'
p362
I180
sS'dso'
p363
I97
sS'atn'
p364
I10
sS'dsm'
p365
I1
sS'tso'
p366
I3
sS'smi'
p367
I359
sS'kir'
p368
I33
sS'gou'
p369
I31
sS'got'
p370
I743
sS'gow'
p371
I128
sS'gov'
p372
I65
sS'aje'
p373
I10
sS'sma'
p374
I336
sS'gor'
p375
I42
sS'nty'
p376
I318
sS'yie'
p377
I56
sS'ntz'
p378
I5
sS'jos'
p379
I142
sS'nts'
p380
I1264
sS'ntr'
p381
I875
sS'ntu'
p382
I184
sS'ntw'
p383
I3
sS'nti'
p384
I2053
sS'nth'
p385
I337
sS'pip'
p386
I33
sS'ntm'
p387
I73
sS'ntl'
p388
I1376
sS'nto'
p389
I1922
sS'ntn'
p390
I12
sS'nta'
p391
I674
sS'kit'
p392
I132
sS'nte'
p393
I3436
sS'ntf'
p394
I5
sS'atf'
p395
I11
sS'atg'
p396
I1
sS'isy'
p397
I12
sS'ate'
p398
I4669
sS'atb'
p399
I1
sS'atc'
p400
I499
sS'xur'
p401
I25
sS'ata'
p402
I95
sS'iss'
p403
I2131
sS'ato'
p404
I136
sS'atl'
p405
I70
sS'isp'
p406
I472
sS'ath'
p407
I3194
sS'ist'
p408
I2905
sS'isk'
p409
I136
sS'isj'
p410
I3
sS'att'
p411
I1607
sS'ish'
p412
I1942
sS'iso'
p413
I153
sS'ats'
p414
I79
sS'ism'
p415
I155
sS'isl'
p416
I89
sS'isc'
p417
I775
sS'isb'
p418
I5
sS'isa'
p419
I336
sS'isg'
p420
I139
sS'isf'
p421
I217
sS'ise'
p422
I1722
sS'isd'
p423
I20
sS'nhe'
p424
I34
sS'kfu'
p425
I22
sS'nha'
p426
I102
sS'nho'
p427
I22
sS'nhi'
p428
I1
sS'pir'
p429
I398
sS'nhu'
p430
I2
sS'kfe'
p431
I1
sS'osa'
p432
I381
sS'kfa'
p433
I142
sS'rke'
p434
I242
sS'xcu'
p435
I132
sS'aol'
p436
I3
sS'xib'
p437
I6
sS'toy'
p438
I13
sS'xie'
p439
I116
sS'xig'
p440
I2
sS'tor'
p441
I1275
sS'tos'
p442
I23
sS'top'
p443
I557
sS'equ'
p444
I615
sS'tow'
p445
I538
sS'tot'
p446
I64
sS'tou'
p447
I272
sS'tok'
p448
I23
sS'xir'
p449
I1
sS'xis'
p450
I166
sS'ton'
p451
I1604
sS'too'
p452
I2013
sS'tol'
p453
I668
sS'tom'
p454
I306
sS'tob'
p455
I30
sS'toc'
p456
I52
sS'toa'
p457
I12
sS'kew'
p458
I11
sS'tog'
p459
I409
sS'tod'
p460
I48
sS'toe'
p461
I16
sS'yis'
p462
I8
sS'caf'
p463
I5
sS'gym'
p464
I56
sS'umv'
p465
I2
sS'gyv'
p466
I1
sS'osc'
p467
I245
sS'gyt'
p468
I6
sS'nbu'
p469
I7
sS'gyp'
p470
I10
sS'teg'
p471
I11
sS'iaw'
p472
I4
sS'nzu'
p473
I1
sS'cim'
p474
I10
sS'epy'
p475
I10
sS'coq'
p476
I7
sS'aal'
p477
I1
sS'nza'
p478
I1
sS'kth'
p479
I1
sS'nze'
p480
I6
sS'nzi'
p481
I3
sS'bne'
p482
I2
sS'nzo'
p483
I2
sS'thu'
p484
I405
sS'raf'
p485
I14
sS'rag'
p486
I390
sS'rad'
p487
I204
sS'rae'
p488
I4
sS'rab'
p489
I457
sS'rac'
p490
I1609
sS'piv'
p491
I1
sS'cyr'
p492
I57
sS'ran'
p493
I2977
sS'epr'
p494
I193
sS'ral'
p495
I659
sS'ram'
p496
I306
sS'rak'
p497
I10
sS'rah'
p498
I62
sS'rai'
p499
I1090
sS'rav'
p500
I554
sS'raw'
p501
I596
sS'rat'
p502
I1808
sS'rau'
p503
I39
sS'rar'
p504
I277
sS'ras'
p505
I312
sS'rap'
p506
I262
sS'lbi'
p507
I2
sS'ogy'
p508
I37
sS'thp'
p509
I2
sS'raz'
p510
I13
sS'lbl'
p511
I1
sS'lbo'
p512
I20
sS'ray'
p513
I317
sS'yps'
p514
I5
sS'eud'
p515
I2
sS'ypt'
p516
I5
sS'thn'
p517
I1
sS'rsk'
p518
I41
sS'rce'
p519
I505
sS'teu'
p520
I6
sS'rsd'
p521
I37
sS'nbe'
p522
I25
sS'ype'
p523
I7
sS'yph'
p524
I20
sS'ypi'
p525
I3
sS'ypo'
p526
I15
sS'ozz'
p527
I1
sS'tyl'
p528
I25
sS'tym'
p529
I1
sS'tyn'
p530
I1
sS'udy'
p531
I62
sS'mba'
p532
I90
sS'tyi'
p533
I15
sS'aba'
p534
I43
sS'bst'
p535
I212
sS'bsu'
p536
I37
sS'thh'
p537
I6
sS'apk'
p538
I1
sS'sue'
p539
I118
sS'tyc'
p540
I1
sS'gsi'
p541
I2
sS'bso'
p542
I172
sS'bsi'
p543
I16
sS'bse'
p544
I398
sS'rsc'
p545
I2
sS'typ'
p546
I26
sS'epd'
p547
I2
sS'tyr'
p548
I40
sS'bsc'
p549
I41
sS'cyc'
p550
I4
sS'doi'
p551
I163
sS'don'
p552
I2006
sS'doo'
p553
I1072
sS'dol'
p554
I55
sS'dom'
p555
I163
sS'bog'
p556
I7
sS'doc'
p557
I297
sS'doa'
p558
I3
sS'm'
p559
I296
sS'dog'
p560
I175
sS'doe'
p561
I325
sS'doz'
p562
I62
sS'suo'
p563
I1
sS'dox'
p564
I3
sS'ogn'
p565
I142
sS'lpi'
p566
I41
sS'abi'
p567
I327
sS'dor'
p568
I88
sS'caw'
p569
I5
sS'lpe'
p570
I76
sS'dov'
p571
I9
sS'dow'
p572
I1612
sS'lpa'
p573
I8
sS'dou'
p574
I542
sS'ah'
p575
I115
sS'api'
p576
I134
sS'mss'
p577
I1
sS'suj'
p578
I1
sS'oge'
p579
I391
sS'xl'
p580
I1
sS'abn'
p581
I1
sS'ltb'
p582
I2
sS'ogg'
p583
I20
sS'oci'
p584
I247
sS'och'
p585
I403
sS'ock'
p586
I1087
sS'hry'
p587
I3
sS'ocl'
p588
I6
sS'oco'
p589
I7
sS'hru'
p590
I129
sS'cyo'
p591
I2
sS'occ'
p592
I514
sS'oce'
p593
I444
sS'xod'
p594
I1
sS'cyn'
p595
I6
sS'ocy'
p596
I3
sS'hro'
p597
I853
sS'sa'
p598
I2
sS'hri'
p599
I243
sS'cym'
p600
I1
sS'hre'
p601
I678
sS'ocr'
p602
I27
sS'hra'
p603
I67
sS'oct'
p604
I271
sS'sur'
p605
I1549
sS'do'
p606
I1702
sS'ney'
p607
I408
sS'yfi'
p608
I2
sS'da'
p609
I1
sS'dwr'
p610
I28
sS'dy'
p611
I3
sS'ahn'
p612
I2
sS'du'
p613
I2
sS'dr'
p614
I45
sS'eme'
p615
I2130
sS'bat'
p616
I92
sS'xom'
p617
I3
sS'ema'
p618
I1005
sS'bas'
p619
I113
sS'bap'
p620
I2
sS'emb'
p621
I889
sS'emm'
p622
I8
sS'eml'
p623
I3
sS'emo'
p624
I549
sS'emn'
p625
I105
sS'emi'
p626
I303
sS'bax'
p627
I10
sS'bay'
p628
I23
sS'emu'
p629
I19
sS'bag'
p630
I54
sS'bad'
p631
I197
sS'bab'
p632
I216
sS'emp'
p633
I915
sS'ems'
p634
I285
sS'ban'
p635
I550
sS'bal'
p636
I99
sS'emy'
p637
I29
sS'bak'
p638
I11
sS'bah'
p639
I8
sS'bai'
p640
I37
sS'efy'
p641
I16
sS'nut'
p642
I413
sS'nur'
p643
I170
sS'nus'
p644
I64
sS'nup'
p645
I1
sS'nun'
p646
I15
sS'nuo'
p647
I11
sS'num'
p648
I148
sS'nui'
p649
I47
sS'nuf'
p650
I20
sS'nug'
p651
I11
sS'nud'
p652
I3
sS'nue'
p653
I265
sS'nub'
p654
I1
sS'nuc'
p655
I8
sS'bts'
p656
I31
sS'nua'
p657
I67
sS'iry'
p658
I162
sS'xfo'
p659
I6
sS'mus'
p660
I1349
sS'mur'
p661
I296
sS'irp'
p662
I3
sS'irr'
p663
I234
sS'irs'
p664
I1707
sS'irt'
p665
I286
sS'iru'
p666
I3
sS'irv'
p667
I7
sS'muz'
p668
I3
sS'irh'
p669
I2
sS'iri'
p670
I464
sS'mug'
p671
I11
sS'muf'
p672
I17
sS'irl'
p673
I892
sS'irm'
p674
I226
sS'muc'
p675
I690
sS'iro'
p676
I82
sS'mum'
p677
I4
sS'ira'
p678
I203
sS'ngc'
p679
I1
sS'irc'
p680
I383
sS'ird'
p681
I240
sS'ire'
p682
I1715
sS'irf'
p683
I137
sS'irg'
p684
I57
sS'omb'
p685
I566
sS'we'
p686
I2194
sS'wts'
p687
I1
sS'ipw'
p688
I3
sS'omf'
p689
I182
sS'ome'
p690
I5029
sS'elk'
p691
I11
sS'omi'
p692
I613
sS'omo'
p693
I16
sS'omn'
p694
I14
sS'omm'
p695
I676
sS'oml'
p696
I6
sS'oms'
p697
I129
sS'omr'
p698
I4
sS'omp'
p699
I1345
sS'wte'
p700
I5
sS'bes'
p701
I682
sS'wth'
p702
I10
sS'eln'
p703
I13
sS'omy'
p704
I53
sS'ham'
p705
I482
sS'unp'
p706
I64
sS'cop'
p707
I85
sS'unr'
p708
I94
sS'ile'
p709
I1794
sS'cou'
p710
I3936
sS'unu'
p711
I63
sS'cow'
p712
I54
sS'cov'
p713
I713
sS'coy'
p714
I2
sS'ilo'
p715
I96
sS'ill'
p716
I4929
sS'ilm'
p717
I93
sS'ilk'
p718
I75
sS'ilh'
p719
I1
sS'ili'
p720
I632
sS'coa'
p721
I212
sS'una'
p722
I266
sS'coc'
p723
I28
sS'unc'
p724
I589
sS'und'
p725
I3481
sS'ils'
p726
I166
sS'cog'
p727
I129
sS'ung'
p728
I785
sS'unh'
p729
I80
sS'uni'
p730
I450
sS'unj'
p731
I24
sS'unk'
p732
I132
sS'com'
p733
I4275
sS'col'
p734
I760
sS'unn'
p735
I202
sS'con'
p736
I4620
sS'kwa'
p737
I195
sS'pre'
p738
I2879
sS'ela'
p739
I482
sS'roz'
p740
I17
sS'elf'
p741
I2857
sS'anf'
p742
I2
sS'kwo'
p743
I23
sS'hae'
p744
I10
sS'rnh'
p745
I1
sS'koo'
p746
I2
sS'haf'
p747
I13
sS'ehu'
p748
I58
sS'hag'
p749
I22
sS'jog'
p750
I4
sS'san'
p751
I832
sS'fra'
p752
I998
sS'anb'
p753
I2
sS'fre'
p754
I795
sS'cuf'
p755
I262
sS'fri'
p756
I964
sS'sal'
p757
I269
sS'fro'
p758
I3733
sS'ngy'
p759
I11
sS'sac'
p760
I152
sS'awd'
p761
I1
sS'fru'
p762
I20
sS'uve'
p763
I5
sS'fry'
p764
I2
sS'ann'
p765
I1542
sS'cub'
p766
I3
sS'chf'
p767
I12
sS'xxv'
p768
I19
sS'mch'
p769
I3
sS'sag'
p770
I235
sS'xxx'
p771
I18
sS'saf'
p772
I188
sS'rgh'
p773
I8
sS'cun'
p774
I43
sS'zio'
p775
I2
sS'xxi'
p776
I24
sS'ank'
p777
I1172
sS'elp'
p778
I466
sS'gns'
p779
I50
sS'xys'
p780
I9
sS'sly'
p781
I504
sS'wfl'
p782
I1
sS'aiz'
p783
I7
sS'ait'
p784
I843
sS'aiv'
p785
I4
sS'anv'
p786
I10
sS'ais'
p787
I322
sS'air'
p788
I2093
sS'aim'
p789
I313
sS'ail'
p790
I603
sS'ain'
p791
I5236
sS'sli'
p792
I334
sS'aik'
p793
I1
sS'gne'
p794
I169
sS'aie'
p795
I19
sS'aid'
p796
I3683
sS'aig'
p797
I118
sS'gni'
p798
I273
sS'aia'
p799
I2
sS'sla'
p800
I116
sS'aic'
p801
I8
sS'wfu'
p802
I75
sS'ix'
p803
I7
sS'wdl'
p804
I6
sS'is'
p805
I4852
sS'it'
p806
I9966
sS'iv'
p807
I15
sS'ii'
p808
I22
sS'tzb'
p809
I1
sS'tze'
p810
I1
sS'il'
p811
I9
sS'in'
p812
I14437
sS'opp'
p813
I709
sS'sju'
p814
I3
sS'chi'
p815
I1162
sS'if'
p816
I2787
sS'dho'
p817
I28
sS'akk'
p818
I2
sS'uje'
p819
I1
sS'rnm'
p820
I5
sS'dhi'
p821
I3
sS'anx'
p822
I255
sS'dhe'
p823
I12
sS'rnl'
p824
I18
sS'efs'
p825
I9
sS'sav'
p826
I160
sS'sau'
p827
I38
sS'nih'
p828
I12
sS'nii'
p829
I2
sS'nin'
p830
I2723
sS'nio'
p831
I385
sS'nil'
p832
I10
sS'nim'
p833
I107
sS'kis'
p834
I151
sS'nic'
p835
I300
sS'nia'
p836
I175
sS'nif'
p837
I163
sS'nig'
p838
I1078
sS'nie'
p839
I223
sS'niz'
p840
I4
sS'nix'
p841
I3
sS'kin'
p842
I2683
sS'kil'
p843
I97
sS'kic'
p844
I18
sS'nis'
p845
I606
sS'nip'
p846
I14
sS'niq'
p847
I8
sS'niv'
p848
I45
sS'rze'
p849
I1
sS'nit'
p850
I432
sS'niu'
p851
I20
sS'thy'
p852
I386
sS'sme'
p853
I122
sS'thw'
p854
I80
sS'ept'
p855
I846
sS'epu'
p856
I68
sS'ths'
p857
I222
sS'thr'
p858
I1629
sS'epp'
p859
I48
sS'glu'
p860
I4
sS'tho'
p861
I3053
sS'epo'
p862
I191
sS'epl'
p863
I559
sS'thl'
p864
I97
sS'thi'
p865
I7324
sS'epi'
p866
I218
sS'thf'
p867
I73
sS'the'
p868
I58766
sS'epe'
p869
I595
sS'epb'
p870
I1
sS'thb'
p871
I5
sS'tha'
p872
I11166
sS'epa'
p873
I454
sS'yei'
p874
I2
sS'yel'
p875
I74
sS'yen'
p876
I1
sS'yea'
p877
I490
sS'xv'
p878
I4
sS'yeb'
p879
I18
sS'yed'
p880
I411
sS'opl'
p881
I357
sS'rkw'
p882
I2
sS'opm'
p883
I13
sS'vif'
p884
I1
sS'yes'
p885
I1493
sS'yer'
p886
I287
sS'yet'
p887
I648
sS'yew'
p888
I7
sS'hah'
p889
I5
sS'hai'
p890
I626
sS'eli'
p891
I1594
sS'hal'
p892
I2169
sS'elo'
p893
I416
sS'han'
p894
I4074
sS'hao'
p895
I6
sS'elb'
p896
I12
sS'elc'
p897
I74
sS'hab'
p898
I201
sS'rks'
p899
I119
sS'had'
p900
I7355
sS'elg'
p901
I3
sS'eld'
p902
I590
sS'ele'
p903
I814
sS'hay'
p904
I31
sS'haz'
p905
I33
sS'ely'
p906
I1976
sS'bno'
p907
I4
sS'rnu'
p908
I4
sS'hap'
p909
I1303
sS'els'
p910
I423
sS'har'
p911
I1844
sS'has'
p912
I1659
sS'hat'
p913
I12997
sS'hau'
p914
I128
sS'hav'
p915
I5362
sS'haw'
p916
I210
sS'opt'
p917
I63
sS'opu'
p918
I25
sS'rni'
p919
I1156
sS'lcu'
p920
I46
sS'rno'
p921
I167
sS'rnn'
p922
I8
sS'opr'
p923
I70
sS'ops'
p924
I52
sS'rnc'
p925
I31
sS'rna'
p926
I243
sS'rng'
p927
I1
sS'opy'
p928
I58
sS'rne'
p929
I1610
sS'lcy'
p930
I2
sS'ope'
p931
I1626
sS'rny'
p932
I5
sS'opa'
p933
I9
sS'lca'
p934
I8
sS'rns'
p935
I237
sS'lco'
p936
I554
sS'opo'
p937
I191
sS'oph'
p938
I86
sS'opi'
p939
I363
sS'lch'
p940
I3
sS'rnt'
p941
I77
sS'vis'
p942
I526
sS'ywa'
p943
I14
sS'ywo'
p944
I1
sS'rnd'
p945
I7
sS'ywh'
p946
I71
sS'ola'
p947
I144
sS'olb'
p948
I8
sS'olc'
p949
I4
sS'old'
p950
I2137
sS'ole'
p951
I908
sS'olf'
p952
I9
sS'zag'
p953
I1
sS'olh'
p954
I1
sS'oli'
p955
I583
sS'olk'
p956
I19
sS'oll'
p957
I1048
sS'olm'
p958
I20
sS'oln'
p959
I8
sS'olo'
p960
I400
sS'viz'
p961
I2
sS'olr'
p962
I39
sS'ols'
p963
I40
sS'olt'
p964
I54
sS'olu'
p965
I371
sS'olv'
p966
I181
sS'oly'
p967
I59
sS'noc'
p968
I250
sS'vix'
p969
I1
sS'ick'
p970
I1071
sS'fou'
p971
I904
sS'ici'
p972
I694
sS'fow'
p973
I6
sS'ico'
p974
I29
sS'ump'
p975
I158
sS'for'
p976
I10100
sS'icl'
p977
I78
sS'icc'
p978
I3
sS'ica'
p979
I931
sS'sfy'
p980
I30
sS'fox'
p981
I5
sS'ice'
p982
I1897
sS'ume'
p983
I386
sS'foe'
p984
I5
sS'icy'
p985
I14
sS'fog'
p986
I16
sS'uma'
p987
I167
sS'foa'
p988
I8
sS'umb'
p989
I366
sS'umm'
p990
I233
sS'fom'
p991
I1
sS'umo'
p992
I87
sS'foo'
p993
I381
sS'umi'
p994
I86
sS'foi'
p995
I6
sS'icu'
p996
I361
sS'ict'
p997
I461
sS'plu'
p998
I57
sS'awt'
p999
I2
sS'hse'
p1000
I3
sS'chs'
p1001
I7
sS'hsi'
p1002
I1
sS'hso'
p1003
I1
sS'ply'
p1004
I402
sS'awr'
p1005
I2
sS'ple'
p1006
I1935
sS'pla'
p1007
I2356
sS'plo'
p1008
I243
sS'rt'
p1009
I1
sS'pli'
p1010
I640
sS'obn'
p1011
I3
sS'obo'
p1012
I142
sS'obl'
p1013
I309
sS'eef'
p1014
I5
sS'obj'
p1015
I330
sS'obi'
p1016
I58
sS'obd'
p1017
I4
sS'obe'
p1018
I204
sS'obb'
p1019
I104
sS'o'
p1020
I245
sS'oba'
p1021
I197
sS'pry'
p1022
I10
sS'eyh'
p1023
I10
sS'obv'
p1024
I27
sS'obw'
p1025
I3
sS'obt'
p1026
I83
sS'eps'
p1027
I195
sS'obr'
p1028
I4
sS'obs'
p1029
I378
sS'mbl'
p1030
I356
sS'soc'
p1031
I219
sS'aha'
p1032
I42
sS'soe'
p1033
I50
sS'sod'
p1034
I11
sS'ppe'
p1035
I1835
sS'sof'
p1036
I267
sS'soi'
p1037
I16
sS'mbe'
p1038
I1302
sS'ppi'
p1039
I275
sS'sfi'
p1040
I86
sS'som'
p1041
I2372
sS'sol'
p1042
I869
sS'soo'
p1043
I512
sS'son'
p1044
I1924
sS'ahr'
p1045
I1
sS'ppr'
p1046
I410
sS'sos'
p1047
I1
sS'sor'
p1048
I619
sS'sou'
p1049
I593
sS'sot'
p1050
I7
sS'sow'
p1051
I23
sS'sov'
p1052
I21
sS'mbu'
p1053
I9
sS'ppy'
p1054
I218
sS'eyn'
p1055
I1
sS'uno'
p1056
I28
sS'mbr'
p1057
I156
sS'mbs'
p1058
I59
sS'wan'
p1059
I852
sS'wam'
p1060
I7
sS'wal'
p1061
I845
sS'wak'
p1062
I133
sS'gir'
p1063
I402
sS'wai'
p1064
I734
sS'gip'
p1065
I24
sS'wag'
p1066
I42
sS'waf'
p1067
I6
sS'wad'
p1068
I16
sS'awb'
p1069
I11
sS'gig'
p1070
I8
sS'gif'
p1071
I42
sS'gie'
p1072
I41
sS'gid'
p1073
I27
sS'gic'
p1074
I31
sS'gib'
p1075
I44
sS'way'
p1076
I2206
sS'wax'
p1077
I24
sS'gio'
p1078
I84
sS'gin'
p1079
I945
sS'gim'
p1080
I40
sS'gil'
p1081
I115
sS'was'
p1082
I10567
sS'war'
p1083
I1484
sS'lwo'
p1084
I1
sS'urd'
p1085
I190
sS'ckg'
p1086
I16
sS'ckf'
p1087
I4
sS'axw'
p1088
I1
sS'azi'
p1089
I40
sS'ckc'
p1090
I1
sS'aja'
p1091
I12
sS'azo'
p1092
I4
sS'iqu'
p1093
I59
sS'la'
p1094
I13
sS'giv'
p1095
I887
sS'aze'
p1096
I175
sS'xwo'
p1097
I1
sS'mth'
p1098
I12
sS'urm'
p1099
I86
sS'azu'
p1100
I7
sS'mte'
p1101
I2
sS'nno'
p1102
I639
sS'uro'
p1103
I32
sS'nni'
p1104
I374
sS'urh'
p1105
I120
sS'nne'
p1106
I1390
sS'khu'
p1107
I2
sS'nna'
p1108
I341
sS'ckh'
p1109
I5
sS'thm'
p1110
I4
sS'eeb'
p1111
I43
sS'nny'
p1112
I94
sS'kho'
p1113
I5
sS'kgu'
p1114
I6
sS'nnu'
p1115
I24
sS'nns'
p1116
I2
sS'khe'
p1117
I2
sS'sna'
p1118
I74
sS'no'
p1119
I2799
sS'tit'
p1120
I359
sS'cos'
p1121
I58
sS'tiv'
p1122
I854
sS'tov'
p1123
I1
sS'tip'
p1124
I42
sS'tiq'
p1125
I21
sS'tir'
p1126
I470
sS'tis'
p1127
I377
sS'til'
p1128
I1686
sS'tim'
p1129
I2519
sS'tin'
p1130
I3588
sS'tio'
p1131
I6362
sS'tid'
p1132
I66
sS'tie'
p1133
I733
sS'tif'
p1134
I410
sS'tig'
p1135
I131
sS'tia'
p1136
I224
sS'tib'
p1137
I57
sS'tic'
p1138
I1177
sS'umu'
p1139
I20
sS'urr'
p1140
I335
sS'nba'
p1141
I1
sS'squ'
p1142
I137
sS'kvi'
p1143
I1
sS'ich'
p1144
I3563
sS'rnp'
p1145
I2
sS'ums'
p1146
I309
sS'vee'
p1147
I3
sS'fos'
p1148
I250
sS'fsp'
p1149
I4
sS'ptr'
p1150
I1
sS'nxi'
p1151
I254
sS'osy'
p1152
I16
sS'roi'
p1153
I27
sS'lly'
p1154
I1848
sS'rok'
p1155
I247
sS'rol'
p1156
I210
sS'rom'
p1157
I3793
sS'ron'
p1158
I831
sS'roo'
p1159
I1817
sS'lls'
p1160
I269
sS'roa'
p1161
I664
sS'rob'
p1162
I370
sS'roc'
p1163
I871
sS'rod'
p1164
I323
sS'ost'
p1165
I1648
sS'llu'
p1166
I96
sS'rog'
p1167
I87
sS'osi'
p1168
I719
sS'roy'
p1169
I69
sS'lli'
p1170
I833
sS'llo'
p1171
I1160
sS'lln'
p1172
I103
sS'oso'
p1173
I67
sS'rop'
p1174
I747
sS'roq'
p1175
I3
sS'lla'
p1176
I427
sS'ros'
p1177
I1185
sS'ose'
p1178
I3124
sS'rou'
p1179
I2548
sS'rov'
p1180
I557
sS'row'
p1181
I982
sS'vet'
p1182
I45
sS'ver'
p1183
I7765
sS'ves'
p1184
I931
sS'umd'
p1185
I2
sS'fae'
p1186
I1
sS'afi'
p1187
I3
sS'vez'
p1188
I2
sS'vex'
p1189
I46
sS'vey'
p1190
I73
sS'veg'
p1191
I6
sS'ved'
p1192
I1726
sS'umf'
p1193
I1
sS'vea'
p1194
I54
sS'ven'
p1195
I2292
sS'vel'
p1196
I633
sS'vem'
p1197
I127
sS'veh'
p1198
I48
sS'vei'
p1199
I76
sS'ert'
p1200
I1506
sS'lre'
p1201
I260
sS'lri'
p1202
I1
sS'foc'
p1203
I12
sS'xha'
p1204
I58
sS'lro'
p1205
I49
sS'ics'
p1206
I57
sS'icr'
p1207
I4
sS'lry'
p1208
I3
sS'ma'
p1209
I72
sS'lsa'
p1210
I1
sS'ghw'
p1211
I7
sS'fon'
p1212
I123
sS'dil'
p1213
I117
sS'dim'
p1214
I126
sS'din'
p1215
I1988
sS'umn'
p1216
I48
sS'dih'
p1217
I2
sS'guf'
p1218
I1
sS'gue'
p1219
I406
sS'did'
p1220
I1432
sS'die'
p1221
I546
sS'dif'
p1222
I382
sS'dig'
p1223
I117
sS'dia'
p1224
I1025
sS'dib'
p1225
I42
sS'dic'
p1226
I366
sS'gus'
p1227
I70
sS'gur'
p1228
I117
sS'diz'
p1229
I4
sS'gut'
p1230
I3
sS'dit'
p1231
I322
sS'diu'
p1232
I18
sS'div'
p1233
I150
sS'diw'
p1234
I2
sS'dip'
p1235
I16
sS'kid'
p1236
I7
sS'dir'
p1237
I402
sS'dis'
p1238
I2379
sS'htg'
p1239
I71
sS'htf'
p1240
I83
sS'hte'
p1241
I676
sS'htd'
p1242
I1
sS'htc'
p1243
I1
sS'ybe'
p1244
I2
sS'hto'
p1245
I45
sS'htn'
p1246
I40
sS'htm'
p1247
I11
sS'htl'
p1248
I84
sS'hti'
p1249
I35
sS'kli'
p1250
I566
sS'htw'
p1251
I1
sS'pme'
p1252
I12
sS'hsa'
p1253
I5
sS'hts'
p1254
I334
sS'tcy'
p1255
I7
sS'jea'
p1256
I40
sS'pmo'
p1257
I3
sS'hty'
p1258
I90
sS'thd'
p1259
I182
sS'tne'
p1260
I227
sS'zzy'
p1261
I3
sS'wut'
p1262
I62
sS'ekn'
p1263
I1
sS'oes'
p1264
I431
sS'zra'
p1265
I62
sS'ufa'
p1266
I7
sS'xtu'
p1267
I24
sS'thc'
p1268
I478
sS'yok'
p1269
I3
sS'ydo'
p1270
I1
sS'xhu'
p1271
I1
sS'arb'
p1272
I87
sS'kst'
p1273
I1
sS'erc'
p1274
I1200
sS'kou'
p1275
I2
sS'oev'
p1276
I11
sS'rud'
p1277
I100
sS'oet'
p1278
I27
sS'ydr'
p1279
I1
sS'tno'
p1280
I1
sS'box'
p1281
I92
sS'boy'
p1282
I246
sS'hbo'
p1283
I175
sS'ekl'
p1284
I9
sS'xic'
p1285
I15
sS'eki'
p1286
I25
sS'hbe'
p1287
I5
sS'tni'
p1288
I59
sS'bor'
p1289
I261
sS'bos'
p1290
I49
sS'bot'
p1291
I669
sS'bou'
p1292
I1748
sS'bov'
p1293
I137
sS'kly'
p1294
I115
sS'boh'
p1295
I2
sS'boi'
p1296
I25
sS'bol'
p1297
I102
sS'bom'
p1298
I23
sS'bon'
p1299
I185
sS'boo'
p1300
I408
sS'boa'
p1301
I147
sS'bob'
p1302
I3
sS'eks'
p1303
I128
sS'irw'
p1304
I1
sS'dun'
p1305
I20
sS'ipa'
p1306
I102
sS'hst'
p1307
I29
sS'ipe'
p1308
I78
sS'ngh'
p1309
I155
sS'iph'
p1310
I6
sS'ipi'
p1311
I25
sS'ipo'
p1312
I7
sS'ipl'
p1313
I95
sS'ngi'
p1314
I263
sS'ipr'
p1315
I3
sS'ips'
p1316
I296
sS'ipp'
p1317
I153
sS'uzy'
p1318
I2
sS'uzz'
p1319
I86
sS'ipu'
p1320
I6
sS'wsu'
p1321
I1
sS'zze'
p1322
I4
sS'aym'
p1323
I17
sS'ngt'
p1324
I224
sS'ayo'
p1325
I2
sS'ayn'
p1326
I1
sS'ayi'
p1327
I259
sS'msy'
p1328
I7
sS'aye'
p1329
I275
sS'ayg'
p1330
I1
sS'mst'
p1331
I292
sS'aya'
p1332
I11
sS'gis'
p1333
I110
sS'ayb'
p1334
I3
sS'mso'
p1335
I21
sS'msm'
p1336
I1
sS'jam'
p1337
I17
sS'zza'
p1338
I10
sS'msi'
p1339
I4
sS'TOTAL_WEIGHT'
p1340
F2055790.0
sS'ayt'
p1341
I17
sS'mse'
p1342
I838
sS'oed'
p1343
I19
sS'msc'
p1344
I1
sS'msb'
p1345
I7
sS'ays'
p1346
I1090
sS'wnb'
p1347
I1
sS'ood'
p1348
I2013
sS'oof'
p1349
I189
sS'ooa'
p1350
I1
sS'ooc'
p1351
I19
sS'zus'
p1352
I1
sS'oom'
p1353
I1635
sS'ool'
p1354
I544
sS'oon'
p1355
I1010
sS'ooi'
p1356
I11
sS'ooh'
p1357
I5
sS'ook'
p1358
I3481
sS'oot'
p1359
I443
sS'oov'
p1360
I1
sS'oop'
p1361
I59
sS'oos'
p1362
I185
sS'oor'
p1363
I1697
sS'axt'
p1364
I10
sS'jad'
p1365
I4
sS'kur'
p1366
I2
sS'yls'
p1367
I1
sS'fly'
p1368
I92
sS'ibi'
p1369
I158
sS'cay'
p1370
I16
sS'uly'
p1371
I96
sS'ibl'
p1372
I905
sS'cas'
p1373
I889
sS'car'
p1374
I1117
sS'ibb'
p1375
I24
sS'cap'
p1376
I392
sS'flu'
p1377
I280
sS'ibe'
p1378
I281
sS'cau'
p1379
I813
sS'cat'
p1380
I1501
sS'cak'
p1381
I25
sS'ulk'
p1382
I38
sS'cai'
p1383
I4
sS'uli'
p1384
I107
sS'uln'
p1385
I50
sS'can'
p1386
I2223
sS'ull'
p1387
I798
sS'cal'
p1388
I1268
sS'fla'
p1389
I234
sS'ulc'
p1390
I3
sS'ibr'
p1391
I154
sS'ula'
p1392
I508
sS'fle'
p1393
I370
sS'ulg'
p1394
I71
sS'uld'
p1395
I5381
sS'ule'
p1396
I87
sS'spy'
p1397
I20
sS'kyi'
p1398
I1
sS'kyl'
p1399
I110
sS'cag'
p1400
I24
sS'spr'
p1401
I186
sS'sps'
p1402
I3
sS'spu'
p1403
I66
sS'sph'
p1404
I43
sS'spi'
p1405
I780
sS'spl'
p1406
I103
sS'spo'
p1407
I896
sS'spa'
p1408
I371
sS'spe'
p1409
I2302
sS'fpe'
p1410
I2
sS'nyx'
p1411
I1
sS'cob'
p1412
I39
sS'nys'
p1413
I2
sS'nyw'
p1414
I52
sS'nyt'
p1415
I323
sS'dyt'
p1416
I1
sS'nyh'
p1417
I5
sS'nyi'
p1418
I28
sS'ugb'
p1419
I2
sS'nyo'
p1420
I41
sS'nym'
p1421
I20
sS'nyb'
p1422
I88
sS'srs'
p1423
I10
sS'eog'
p1424
I3
sS'lpf'
p1425
I1
sS'map'
p1426
I8
sS'mas'
p1427
I659
sS'mar'
p1428
I1585
sS'mau'
p1429
I5
sS'mat'
p1430
I1029
sS'maw'
p1431
I3
sS'hog'
p1432
I12
sS'may'
p1433
I838
sS'sno'
p1434
I67
sS'aom'
p1435
I2
sS'fed'
p1436
I36
sS'xix'
p1437
I6
sS'ryl'
p1438
I2
sS'sni'
p1439
I9
sS'mac'
p1440
I62
sS'snu'
p1441
I25
sS'aos'
p1442
I6
sS'mad'
p1443
I1162
sS'mag'
p1444
I262
sS'ylo'
p1445
I1
sS'mai'
p1446
I594
sS'mah'
p1447
I19
sS'mak'
p1448
I986
sS'maj'
p1449
I27
sS'mam'
p1450
I64
sS'mal'
p1451
I428
sS'man'
p1452
I3833
sS'ght'
p1453
I6689
sS'dyl'
p1454
I4
sS'obu'
p1455
I7
sS'ghs'
p1456
I19
sS'zni'
p1457
I2
sS'hoa'
p1458
I21
sS'gea'
p1459
I544
sS'su'
p1460
I1
sS'st'
p1461
I182
sS'ghe'
p1462
I239
sS'si'
p1463
I2
sS'mbi'
p1464
I60
sS'so'
p1465
I2214
sS'gha'
p1466
I189
sS'ghb'
p1467
I176
sS'hoo'
p1468
I644
sS'ghl'
p1469
I85
sS'ghn'
p1470
I3
sS'gho'
p1471
I143
sS'enj'
p1472
I110
sS'gef'
p1473
I4
sS'soa'
p1474
I22
sS'tty'
p1475
I140
sS'lse'
p1476
I380
sS'xem'
p1477
I3
sS'feb'
p1478
I7
sS'tts'
p1479
I1
sS'ttr'
p1480
I96
sS'ppa'
p1481
I124
sS'lsh'
p1482
I2
sS'lsi'
p1483
I48
sS'tti'
p1484
I827
sS'sob'
p1485
I81
sS'mne'
p1486
I91
sS'enn'
p1487
I182
sS'ttl'
p1488
I1735
sS'tta'
p1489
I238
sS'hoi'
p1490
I62
sS'tte'
p1491
I3959
sS'cof'
p1492
I55
sS'pup'
p1493
I77
sS'dju'
p1494
I6
sS'flo'
p1495
I392
sS'gth'
p1496
I210
sS'geo'
p1497
I106
sS'jil'
p1498
I2
sS'ahe'
p1499
I6
sS'hot'
p1500
I166
sS'gto'
p1501
I14
sS'hou'
p1502
I5689
sS'dje'
p1503
I2
sS'joc'
p1504
I1
sS'soh'
p1505
I8
sS'hor'
p1506
I896
sS'coi'
p1507
I55
sS'djo'
p1508
I12
sS'enu'
p1509
I59
sS'nol'
p1510
I10
sS'nom'
p1511
I53
sS'non'
p1512
I213
sS'noo'
p1513
I202
sS'noi'
p1514
I95
sS'nod'
p1515
I40
sS'ppo'
p1516
I805
sS'nog'
p1517
I2
sS'aro'
p1518
I108
sS'noa'
p1519
I14
sS'nob'
p1520
I230
sS'aho'
p1521
I15
sS'tnu'
p1522
I9
sS'shs'
p1523
I5
sS'nox'
p1524
I8
sS'noy'
p1525
I70
sS'ryw'
p1526
I23
sS'not'
p1527
I7218
sS'nou'
p1528
I972
sS'nov'
p1529
I41
sS'now'
p1530
I3713
sS'nop'
p1531
I14
sS'ryt'
p1532
I113
sS'nor'
p1533
I536
sS'nos'
p1534
I66
sS'xli'
p1535
I3
sS'sop'
p1536
I53
sS'xle'
p1537
I2
sS'aev'
p1538
I1
sS'sru'
p1539
I1
sS'ryp'
p1540
I1
sS'shy'
p1541
I19
sS'inx'
p1542
I4
sS'uso'
p1543
I48
sS'em'
p1544
I23
sS'sfo'
p1545
I71
sS'en'
p1546
I14
sS'eh'
p1547
I13
sS'ee'
p1548
I1
sS'kol'
p1549
I1
sS'ex'
p1550
I2
sS'kfr'
p1551
I2
sS'adt'
p1552
I16
sS'et'
p1553
I15
sS'ev'
p1554
I1
sS'er'
p1555
I11
sS'hcr'
p1556
I27
sS'ejo'
p1557
I45
sS'bly'
p1558
I542
sS'blu'
p1559
I155
sS'eje'
p1560
I17
sS'eja'
p1561
I22
sS'tto'
p1562
I127
sS'sgo'
p1563
I1
sS'blo'
p1564
I297
sS'shc'
p1565
I27
sS'bli'
p1566
I662
sS'ble'
p1567
I3624
sS'eju'
p1568
I30
sS'bla'
p1569
I898
sS'hco'
p1570
I2
sS'hcl'
p1571
I477
sS'aed'
p1572
I1
sS'lmy'
p1573
I3
sS'rlo'
p1574
I150
sS'rli'
p1575
I594
sS'rlh'
p1576
I6
sS'ory'
p1577
I619
sS'rle'
p1578
I159
sS'orw'
p1579
I180
sS'ort'
p1580
I2308
sS'lms'
p1581
I11
sS'orr'
p1582
I798
sS'ors'
p1583
I726
sS'orp'
p1584
I59
sS'orq'
p1585
I7
sS'orn'
p1586
I1277
sS'oro'
p1587
I129
sS'orl'
p1588
I372
sS'orm'
p1589
I953
sS'rly'
p1590
I701
sS'ork'
p1591
I438
sS'orh'
p1592
I2
sS'ori'
p1593
I327
sS'rlu'
p1594
I1
sS'org'
p1595
I485
sS'ord'
p1596
I2139
sS'ore'
p1597
I3959
sS'orb'
p1598
I142
sS'lme'
p1599
I64
sS'rls'
p1600
I99
sS'ora'
p1601
I342
sS'ilb'
p1602
I6
sS'xot'
p1603
I3
sS'wah'
p1604
I1
sS'shm'
p1605
I174
sS'gby'
p1606
I1
sS'onj'
p1607
I42
sS'ilg'
p1608
I15
sS'oni'
p1609
I289
sS'onn'
p1610
I323
sS'ono'
p1611
I259
sS'onl'
p1612
I1382
sS'onm'
p1613
I8
sS'onb'
p1614
I10
sS'onc'
p1615
I1298
sS'ona'
p1616
I586
sS'onf'
p1617
I537
sS'ong'
p1618
I2110
sS'ond'
p1619
I2273
sS'one'
p1620
I5305
sS'onz'
p1621
I6
sS'gog'
p1622
I1
sS'xx'
p1623
I4
sS'ony'
p1624
I210
sS'rky'
p1625
I5
sS'rox'
p1626
I15
sS'afr'
p1627
I231
sS'onr'
p1628
I3
sS'ons'
p1629
I3207
sS'onp'
p1630
I17
sS'onq'
p1631
I36
sS'onv'
p1632
I464
sS'zas'
p1633
I1
sS'ont'
p1634
I1385
sS'onu'
p1635
I20
sS'iam'
p1636
I372
sS'ial'
p1637
I507
sS'ian'
p1638
I1098
sS'iai'
p1639
I2
sS'iah'
p1640
I1
sS'iae'
p1641
I1
sS'iad'
p1642
I3
sS'iag'
p1643
I326
sS'yin'
p1644
I882
sS'iac'
p1645
I16
sS'iab'
p1646
I117
sS'gta'
p1647
I1
sS'uki'
p1648
I1
sS'iaz'
p1649
I1
sS'iat'
p1650
I368
sS'uke'
p1651
I162
sS'iap'
p1652
I1
sS'ias'
p1653
I25
sS'iar'
p1654
I232
sS'hud'
p1655
I55
sS'hue'
p1656
I14
sS'lfi'
p1657
I84
sS'hug'
p1658
I117
sS'gia'
p1659
I62
sS'hub'
p1660
I6
sS'huc'
p1661
I11
sS'hul'
p1662
I5
sS'hum'
p1663
I390
sS'hun'
p1664
I314
sS'ebi'
p1665
I2
sS'hut'
p1666
I193
sS'fei'
p1667
I20
sS'hur'
p1668
I645
sS'hus'
p1669
I539
sS'pne'
p1670
I5
sS'rsl'
p1671
I2
sS'bte'
p1672
I55
sS'uor'
p1673
I8
sS'wat'
p1674
I613
sS'lha'
p1675
I5
sS'rzo'
p1676
I3
sS'lho'
p1677
I7
sS'r'
p1678
I7
sS'and'
p1679
I29766
sS'ane'
p1680
I672
sS'sai'
p1681
I3072
sS'ang'
p1682
I2175
sS'pra'
p1683
I334
sS'ana'
p1684
I391
sS'sam'
p1685
I510
sS'anc'
p1686
I2621
sS'inq'
p1687
I429
sS'sab'
p1688
I95
sS'pro'
p1689
I2865
sS'ano'
p1690
I645
sS'pri'
p1691
I1075
sS'ani'
p1692
I629
sS'sad'
p1693
I219
sS'ant'
p1694
I3545
sS'anu'
p1695
I75
sS'say'
p1696
I1658
sS'anw'
p1697
I23
sS'anq'
p1698
I56
sS'ans'
p1699
I1721
sS'sas'
p1700
I25
sS'sar'
p1701
I286
sS'sap'
p1702
I158
sS'saw'
p1703
I772
sS'any'
p1704
I2243
sS'anz'
p1705
I5
sS'sat'
p1706
I810
sS'ptn'
p1707
I6
sS'lii'
p1708
I2
sS'bti'
p1709
I13
sS'fet'
p1710
I135
sS'zon'
p1711
I24
sS'rmo'
p1712
I79
sS'zor'
p1713
I1
sS'wco'
p1714
I1
sS'ecs'
p1715
I14
sS'uyp'
p1716
I1
sS'uys'
p1717
I3
sS'wni'
p1718
I31
sS'hfo'
p1719
I1
sS'iwo'
p1720
I2
sS'egl'
p1721
I62
sS'dla'
p1722
I17
sS'oca'
p1723
I93
sS'uyi'
p1724
I4
sS'fco'
p1725
I7
sS'luv'
p1726
I1
sS'ulw'
p1727
I2
sS'uss'
p1728
I73
sS'axy'
p1729
I1
sS'mrs'
p1730
I957
sS'eha'
p1731
I95
sS'mro'
p1732
I9
sS'rsi'
p1733
I174
sS'axe'
p1734
I49
sS'axi'
p1735
I16
sS'mra'
p1736
I4
sS'wnw'
p1737
I7
sS'nlu'
p1738
I25
sS'wur'
p1739
I2
sS'nly'
p1740
I2043
sS'coe'
p1741
I4
sS'enw'
p1742
I2
sS'nla'
p1743
I23
sS'nle'
p1744
I121
sS'nli'
p1745
I117
sS'nlo'
p1746
I19
sS'wdi'
p1747
I4
sS'rkb'
p1748
I3
sS'wny'
p1749
I5
sS'ffy'
p1750
I6
sS'zee'
p1751
I1
sS'eho'
p1752
I109
sS'sdi'
p1753
I1
sS'cst'
p1754
I14
sS'ffu'
p1755
I7
sS'ges'
p1756
I527
sS'ger'
p1757
I1326
sS'ssy'
p1758
I19
sS'get'
p1759
I1230
sS'ssu'
p1760
I250
sS'ssw'
p1761
I1
sS'yti'
p1762
I6
sS'eun'
p1763
I3
sS'ssp'
p1764
I2
sS'itc'
p1765
I206
sS'ssm'
p1766
I36
sS'ssl'
p1767
I106
sS'sso'
p1768
I204
sS'ssn'
p1769
I54
sS'ssi'
p1770
I2303
sS'dyi'
p1771
I75
sS'gee'
p1772
I4
sS'ged'
p1773
I913
sS'sse'
p1774
I2066
sS'dye'
p1775
I8
sS'ssf'
p1776
I19
sS'ssa'
p1777
I521
sS'gen'
p1778
I1025
sS'gem'
p1779
I210
sS'gel'
p1780
I150
sS'luk'
p1781
I129
sS'utd'
p1782
I3
sS'ffn'
p1783
I3
sS'cid'
p1784
I304
sS'aza'
p1785
I20
sS'rms'
p1786
I309
sS'gbe'
p1787
I1
sS'rmw'
p1788
I1
sS'rmt'
p1789
I12
sS'rmu'
p1790
I74
sS'lnu'
p1791
I4
sS'rmy'
p1792
I18
sS'lfr'
p1793
I6
sS'kem'
p1794
I4
sS'lns'
p1795
I1
sS'uto'
p1796
I34
sS'rmc'
p1797
I3
sS'rma'
p1798
I418
sS'rmf'
p1799
I3
sS'utl'
p1800
I56
sS'rme'
p1801
I608
sS'lne'
p1802
I159
sS'rmh'
p1803
I10
sS'rmi'
p1804
I462
sS'rmn'
p1805
I12
sS'itt'
p1806
I2320
sS'rml'
p1807
I112
sS'utr'
p1808
I32
sS'jov'
p1809
I5
sS'uts'
p1810
I156
sS'ffc'
p1811
I7
sS'ytr'
p1812
I6
sS'azz'
p1813
I10
sS'yla'
p1814
I2
sS'yto'
p1815
I1
sS'un'
p1816
I28
sS'yth'
p1817
I452
sS'joy'
p1818
I190
sS'yte'
p1819
I3
sS'nsh'
p1820
I205
sS'utw'
p1821
I25
sS'ima'
p1822
I414
sS'tus'
p1823
I17
sS'uns'
p1824
I216
sS'tup'
p1825
I42
sS'tur'
p1826
I3399
sS'cit'
p1827
I374
sS'tut'
p1828
I96
sS'tuu'
p1829
I2
sS'tuh'
p1830
I1
sS'tui'
p1831
I5
sS'imb'
p1832
I78
sS'tul'
p1833
I43
sS'tum'
p1834
I94
sS'tun'
p1835
I396
sS'tuo'
p1836
I29
sS'tua'
p1837
I353
sS'tub'
p1838
I12
sS'tuc'
p1839
I16
sS'tud'
p1840
I255
sS'tue'
p1841
I82
sS'tuf'
p1842
I28
sS'tug'
p1843
I7
sS'cix'
p1844
I1
sS'fit'
p1845
I241
sS'vul'
p1846
I44
sS'imf'
p1847
I4
sS'gwi'
p1848
I1
sS'vra'
p1849
I2
sS'ptc'
p1850
I1
sS'adp'
p1851
I1
sS's'
p1852
I4970
sS'dke'
p1853
I55
sS'bbs'
p1854
I1
sS'uoy'
p1855
I8
sS'dki'
p1856
I1
sS'rsb'
p1857
I1
sS'vre'
p1858
I5
sS'pov'
p1859
I19
sS'pow'
p1860
I202
sS'pot'
p1861
I145
sS'pou'
p1862
I201
sS'por'
p1863
I749
sS'pos'
p1864
I2492
sS'pop'
p1865
I34
sS'iml'
p1866
I31
sS'pon'
p1867
I600
sS'poo'
p1868
I569
sS'pol'
p1869
I308
sS'pom'
p1870
I9
sS'pok'
p1871
I438
sS'poi'
p1872
I660
sS'pod'
p1873
I58
sS'poe'
p1874
I39
sS'poc'
p1875
I160
sS'poa'
p1876
I2
sS'jok'
p1877
I32
sS'imp'
p1878
I1158
sS'cx'
p1879
I1
sS'jol'
p1880
I5
sS'lys'
p1881
I26
sS'iur'
p1882
I1
sS'imr'
p1883
I9
sS'lpl'
p1884
I61
sS'fif'
p1885
I85
sS'jeu'
p1886
I1
sS'cqu'
p1887
I130
sS'cly'
p1888
I19
sS'mog'
p1889
I3
sS'hew'
p1890
I50
sS'bma'
p1891
I4
sS'bme'
p1892
I4
sS'bmi'
p1893
I52
sS'gts'
p1894
I1
sS'cxl'
p1895
I2
sS'aht'
p1896
I2
sS'tox'
p1897
I13
sS'eip'
p1898
I20
sS'eis'
p1899
I35
sS'eir'
p1900
I1144
sS'eit'
p1901
I525
sS'eiv'
p1902
I444
sS'mve'
p1903
I2
sS'eiz'
p1904
I97
sS'eia'
p1905
I4
sS'hde'
p1906
I2
sS'eid'
p1907
I5
sS'eig'
p1908
I638
sS'eif'
p1909
I1
sS'hdo'
p1910
I1
sS'moe'
p1911
I1
sS'eil'
p1912
I85
sS'ein'
p1913
I851
sS'ive'
p1914
I3652
sS'uxu'
p1915
I25
sS'iva'
p1916
I1127
sS'cef'
p1917
I69
sS'ygr'
p1918
I1
sS'ivo'
p1919
I26
sS'odw'
p1920
I2
sS'ivi'
p1921
I680
sS'ivu'
p1922
I1
sS'uhe'
p1923
I1
sS'erh'
p1924
I354
sS'aif'
p1925
I1
sS'ivy'
p1926
I10
sS'ceb'
p1927
I3
sS'pap'
p1928
I340
sS'paq'
p1929
I3
sS'par'
p1930
I2231
sS'pas'
p1931
I1249
sS'pat'
p1932
I722
sS'pau'
p1933
I125
sS'pav'
p1934
I32
sS'paw'
p1935
I8
sS'pay'
p1936
I105
sS'cad'
p1937
I19
sS'oky'
p1938
I1
sS'pab'
p1939
I79
sS'pac'
p1940
I190
sS'pad'
p1941
I6
sS'pae'
p1942
I1
sS'pag'
p1943
I147
sS'pai'
p1944
I477
sS'pak'
p1945
I2
sS'pal'
p1946
I245
sS'pam'
p1947
I7
sS'pan'
p1948
I555
sS'oin'
p1949
I1367
sS'oil'
p1950
I142
sS'oik'
p1951
I5
sS'oig'
p1952
I8
sS'oif'
p1953
I1
sS'oie'
p1954
I1
sS'oid'
p1955
I98
sS'oic'
p1956
I471
sS'lfo'
p1957
I1
sS'gru'
p1958
I37
sS'rsy'
p1959
I2
sS'oiv'
p1960
I1
sS'oit'
p1961
I15
sS'ois'
p1962
I177
sS'oir'
p1963
I22
sS'lld'
p1964
I2
sS'yho'
p1965
I17
sS'ccu'
p1966
I408
sS'ccr'
p1967
I1
sS'ccl'
p1968
I1
sS'cco'
p1969
I608
sS'cet'
p1970
I6
sS'cci'
p1971
I98
sS'bey'
p1972
I240
sS'na'
p1973
I2
sS'cce'
p1974
I390
sS'oke'
p1975
I1847
sS'cca'
p1976
I220
sS'nd'
p1977
I6
sS'hth'
p1978
I7
sS'ucu'
p1979
I1
sS'oua'
p1980
I1
sS'ne'
p1981
I2
sS'gda'
p1982
I4
sS'uct'
p1983
I357
sS'uxi'
p1984
I1
sS'rgo'
p1985
I136
sS'gry'
p1986
I101
sS'gdo'
p1987
I8
sS'nar'
p1988
I471
sS'oru'
p1989
I5
sS'xca'
p1990
I2
sS'oza'
p1991
I3
sS'byw'
p1992
I3
sS'cey'
p1993
I1
sS'kwh'
p1994
I1
sS'jau'
p1995
I2
sS'ami'
p1996
I718
sS'moz'
p1997
I3
sS'psh'
p1998
I46
sS'oeu'
p1999
I5
sS'amm'
p2000
I77
sS'aml'
p2001
I14
sS'amo'
p2002
I723
sS'amn'
p2003
I38
sS'ama'
p2004
I155
sS'mor'
p2005
I3070
sS'amb'
p2006
I245
sS'ame'
p2007
I2695
sS'mov'
p2008
I448
sS'mou'
p2009
I474
sS'mot'
p2010
I579
sS'mok'
p2011
I69
sS'moi'
p2012
I38
sS'psy'
p2013
I31
sS'moo'
p2014
I523
sS'mon'
p2015
I1665
sS'mom'
p2016
I748
sS'mol'
p2017
I25
sS'moc'
p2018
I37
sS'amp'
p2019
I324
sS'ams'
p2020
I77
sS'amu'
p2021
I135
sS'amt'
p2022
I15
sS'pst'
p2023
I130
sS'mod'
p2024
I170
sS'zle'
p2025
I84
sS'zli'
p2026
I9
sS'wbe'
p2027
I2
sS'lxx'
p2028
I2
sS't'
p2029
I1992
sS'wba'
p2030
I8
sS'rpe'
p2031
I123
sS'ezy'
p2032
I3
sS'ezz'
p2033
I1
sS'myt'
p2034
I3
sS'unb'
p2035
I46
sS'ezr'
p2036
I62
sS'hqu'
p2037
I4
sS'ezi'
p2038
I8
sS'cxi'
p2039
I1
sS'eze'
p2040
I33
sS'uic'
p2041
I197
sS'ddy'
p2042
I31
sS'xce'
p2043
I313
sS'kma'
p2044
I8
sS'rsp'
p2045
I17
sS'ddr'
p2046
I273
sS'mph'
p2047
I65
sS'ddu'
p2048
I1
sS'ddi'
p2049
I134
sS'uci'
p2050
I43
sS'ddl'
p2051
I144
sS'dda'
p2052
I7
sS'utf'
p2053
I4
sS'dde'
p2054
I793
sS'tdo'
p2055
I3
sS'pts'
p2056
I17
sS'nme'
p2057
I34
sS'nma'
p2058
I42
sS'nmo'
p2059
I19
sS'nmi'
p2060
I15
sS'acc'
p2061
I1000
sS'on'
p2062
I6526
sS'aca'
p2063
I62
sS'sra'
p2064
I3
sS'ace'
p2065
I2659
sS'sre'
p2066
I19
sS'ack'
p2067
I2006
sS'of'
p2068
I21554
sS'aci'
p2069
I217
sS'ach'
p2070
I1757
sS'aco'
p2071
I33
sS'sro'
p2072
I4
sS'acl'
p2073
I87
sS'acs'
p2074
I3
sS'acr'
p2075
I224
sS'acq'
p2076
I130
sS'acp'
p2077
I1
sS'odc'
p2078
I1
sS'acu'
p2079
I85
sS'act'
p2080
I1482
sS'acy'
p2081
I172
sS'or'
p2082
I2062
sS'aen'
p2083
I1
sS'bje'
p2084
I651
sS'yve'
p2085
I1
sS'bjo'
p2086
I4
sS'sif'
p2087
I6
sS'cox'
p2088
I1
sS'bju'
p2089
I2
sS'mdi'
p2090
I1
sS'het'
p2091
I395
sS'loc'
p2092
I514
sS'hev'
p2093
I15
sS'loa'
p2094
I112
sS'lof'
p2095
I31
sS'log'
p2096
I108
sS'her'
p2097
I19220
sS'hes'
p2098
I1727
sS'loi'
p2099
I15
sS'lon'
p2100
I2163
sS'loo'
p2101
I2690
sS'hez'
p2102
I1
sS'lom'
p2103
I14
sS'lor'
p2104
I447
sS'los'
p2105
I1083
sS'lop'
p2106
I253
sS'ehe'
p2107
I224
sS'lov'
p2108
I694
sS'hea'
p2109
I3911
sS'heb'
p2110
I3
sS'lou'
p2111
I705
sS'hel'
p2112
I1433
sS'hem'
p2113
I1953
sS'hen'
p2114
I4595
sS'heo'
p2115
I96
sS'hei'
p2116
I1255
sS'ehi'
p2117
I237
sS'jub'
p2118
I4
sS'rju'
p2119
I2
sS'uin'
p2120
I155
sS'jug'
p2121
I49
sS'jud'
p2122
I207
sS'wnf'
p2123
I1
sS'jui'
p2124
I1
sS'seh'
p2125
I61
sS'agm'
p2126
I19
sS'jul'
p2127
I44
sS'jum'
p2128
I32
sS'jur'
p2129
I70
sS'jus'
p2130
I838
sS'rje'
p2131
I1
sS'juv'
p2132
I2
sS'dob'
p2133
I1
sS'jut'
p2134
I7
sS'dvi'
p2135
I153
sS'gfu'
p2136
I1
sS'bbu'
p2137
I6
sS'jas'
p2138
I1
sS'chl'
p2139
I29
sS'agg'
p2140
I156
sS'azy'
p2141
I14
sS'uia'
p2142
I1
sS'rva'
p2143
I656
sS'uib'
p2144
I1
sS'uie'
p2145
I390
sS'uid'
p2146
I110
sS'rve'
p2147
I649
sS'cbe'
p2148
I1
sS'ai'
p2149
I2
sS'dva'
p2150
I213
sS'rvi'
p2151
I382
sS'rvo'
p2152
I96
sS'uil'
p2153
I192
sS'uio'
p2154
I1
sS'an'
p2155
I2111
sS'uip'
p2156
I5
sS'as'
p2157
I6874
sS'uir'
p2158
I510
sS'au'
p2159
I2
sS'uit'
p2160
I817
sS'aw'
p2161
I2
sS'uiv'
p2162
I35
sS'nbr'
p2163
I10
sS'rvy'
p2164
I3
sS'uiz'
p2165
I2
sS'ida'
p2166
I88
sS'yon'
p2167
I256
sS'igu'
p2168
I146
sS'igt'
p2169
I2
sS'igs'
p2170
I6
sS'igr'
p2171
I16
sS'iot'
p2172
I41
sS'igg'
p2173
I28
sS'ige'
p2174
I242
sS'iga'
p2175
I164
sS'igo'
p2176
I42
sS'ign'
p2177
I746
sS'you'
p2178
I13937
sS'igl'
p2179
I1
sS'utm'
p2180
I33
sS'igi'
p2181
I185
sS'igh'
p2182
I5207
sS'hwo'
p2183
I10
sS'otc'
p2184
I7
sS'hey'
p2185
I1917
sS'hwi'
p2186
I7
sS'mue'
p2187
I35
sS'pyt'
p2188
I1
sS'sak'
p2189
I200
sS'dys'
p2190
I109
sS'hwa'
p2191
I83
sS'ckm'
p2192
I2
sS'cph'
p2193
I1
sS'ngw'
p2194
I1
sS'max'
p2195
I10
sS'hho'
p2196
I4
sS'hmo'
p2197
I2
sS'dsw'
p2198
I1
sS'smu'
p2199
I5
sS'hmi'
p2200
I9
sS'pto'
p2201
I34
sS'alo'
p2202
I594
sS'all'
p2203
I7234
sS'alm'
p2204
I467
sS'sci'
p2205
I296
sS'alk'
p2206
I984
sS'pti'
p2207
I357
sS'ali'
p2208
I553
sS'sce'
p2209
I378
sS'sms'
p2210
I4
sS'pte'
p2211
I426
sS'ale'
p2212
I569
sS'sca'
p2213
I564
sS'alc'
p2214
I503
sS'pta'
p2215
I42
sS'ala'
p2216
I258
sS'mni'
p2217
I20
sS'mnl'
p2218
I26
sS'pty'
p2219
I84
sS'hme'
p2220
I206
sS'scu'
p2221
I133
sS'alw'
p2222
I350
sS'alt'
p2223
I622
sS'alu'
p2224
I113
sS'alr'
p2225
I273
sS'als'
p2226
I555
sS'alp'
p2227
I8
sS'scr'
p2228
I538
sS'rd'
p2229
I6
sS're'
p2230
I136
sS'tu'
p2231
I1
sS'otu'
p2232
I2
sS'to'
p2233
I25983
sS'th'
p2234
I122
sS'osp'
p2235
I190
sS'otw'
p2236
I18
sS'oss'
p2237
I1216
sS'wme'
p2238
I2
sS'yda'
p2239
I7
sS'fax'
p2240
I137
sS'mpe'
p2241
I455
sS'ium'
p2242
I122
sS'dsh'
p2243
I55
sS'mpa'
p2244
I712
sS'far'
p2245
I700
sS'fas'
p2246
I475
sS'mpl'
p2247
I1026
sS'dsi'
p2248
I43
sS'fav'
p2249
I168
sS'faw'
p2250
I7
sS'fat'
p2251
I596
sS'mpi'
p2252
I53
sS'mpt'
p2253
I506
sS'fai'
p2254
I1235
sS'mpr'
p2255
I334
sS'rof'
p2256
I204
sS'fal'
p2257
I332
sS'fam'
p2258
I430
sS'fab'
p2259
I19
sS'fac'
p2260
I1296
sS'ius'
p2261
I24
sS'faa'
p2262
I1
sS'tzj'
p2263
I1
sS'fag'
p2264
I7
sS'fad'
p2265
I40
sS'hdr'
p2266
I89
sS'pbu'
p2267
I1
sS'hya'
p2268
I52
sS'pyi'
p2269
I11
sS'wsb'
p2270
I1
sS'wse'
p2271
I3
sS'hye'
p2272
I1
sS'eug'
p2273
I3
sS'pbr'
p2274
I7
sS'wsi'
p2275
I6
sS'wsh'
p2276
I1
sS'hyl'
p2277
I2
sS'hym'
p2278
I12
sS'hyn'
p2279
I5
sS'ftl'
p2280
I70
sS'hyp'
p2281
I15
sS'wsp'
p2282
I30
sS'hys'
p2283
I99
sS'hyt'
p2284
I3
sS'gos'
p2285
I23
sS'wsv'
p2286
I1
sS'wsy'
p2287
I5
sS'osm'
p2288
I2
sS'pbo'
p2289
I10
sS'ysa'
p2290
I2
sS'ass'
p2291
I1972
sS'nby'
p2292
I2
sS'tel'
p2293
I1706
sS'tem'
p2294
I801
sS'ten'
p2295
I2713
sS'teo'
p2296
I30
sS'tea'
p2297
I805
sS'teb'
p2298
I5
sS'tec'
p2299
I152
sS'ted'
p2300
I5435
sS'tee'
p2301
I287
sS'tef'
p2302
I99
sS'rbr'
p2303
I3
sS'tex'
p2304
I22
sS'llc'
p2305
I29
sS'nbi'
p2306
I2
sS'nbo'
p2307
I24
sS'nbl'
p2308
I2
sS'tep'
p2309
I371
sS'ter'
p2310
I10307
sS'tes'
p2311
I954
sS'tet'
p2312
I8
sS'ror'
p2313
I228
sS'tev'
p2314
I138
sS'tew'
p2315
I12
sS'sug'
p2316
I163
sS'suf'
p2317
I341
sS'abb'
p2318
I70
sS'sud'
p2319
I393
sS'suc'
p2320
I958
sS'sub'
p2321
I548
sS'sua'
p2322
I331
sS'abh'
p2323
I20
sS'rot'
p2324
I400
sS'sum'
p2325
I490
sS'sul'
p2326
I365
sS'abl'
p2327
I2456
sS'abm'
p2328
I4
sS'sui'
p2329
I142
sS'abo'
p2330
I1584
sS'mmu'
p2331
I144
sS'abr'
p2332
I115
sS'abs'
p2333
I399
sS'sus'
p2334
I414
sS'lle'
p2335
I1647
sS'kop'
p2336
I10
sS'sup'
p2337
I813
sS'xon'
p2338
I3
sS'aby'
p2339
I32
sS'dse'
p2340
I2
sS'ryb'
p2341
I80
sS'puf'
p2342
I9
sS'sby'
p2343
I6
sS'hda'
p2344
I93
sS'ggs'
p2345
I21
sS'ggr'
p2346
I16
sS'zie'
p2347
I6
sS'ggy'
p2348
I7
sS'gge'
p2349
I333
sS'gga'
p2350
I71
sS'mms'
p2351
I1
sS'ggl'
p2352
I131
sS'ggo'
p2353
I10
sS'ggi'
p2354
I42
sS'oma'
p2355
I764
sS'hna'
p2356
I1
sS'mmo'
p2357
I309
sS'ysu'
p2358
I2
sS'fiq'
p2359
I1
sS'asg'
p2360
I1
sS'vib'
p2361
I6
sS'vic'
p2362
I417
sS'via'
p2363
I36
sS'rkp'
p2364
I3
sS'vig'
p2365
I47
sS'vid'
p2366
I441
sS'vie'
p2367
I383
sS'yll'
p2368
I119
sS'vin'
p2369
I1492
sS'vio'
p2370
I260
sS'vil'
p2371
I519
sS'vir'
p2372
I127
sS'mme'
p2373
I789
sS'vip'
p2374
I4
sS'viv'
p2375
I113
sS'rka'
p2376
I58
sS'vit'
p2377
I185
sS'viu'
p2378
I3
sS'rkl'
p2379
I30
sS'rkm'
p2380
I11
sS'rkn'
p2381
I66
sS'rkh'
p2382
I4
sS'rki'
p2383
I78
sS've'
p2384
I188
sS'eya'
p2385
I14
sS'twa'
p2386
I32
sS'eye'
p2387
I1096
sS'twe'
p2388
I744
sS'eyi'
p2389
I24
sS'aso'
p2390
I503
sS'twh'
p2391
I1
sS'twi'
p2392
I213
sS'eym'
p2393
I8
sS'two'
p2394
I979
sS'eyo'
p2395
I168
sS'asn'
p2396
I32
sS'eys'
p2397
I53
sS'eyr'
p2398
I104
sS'awg'
p2399
I2
sS'pur'
p2400
I538
sS'pus'
p2401
I77
sS'zia'
p2402
I1
sS'muh'
p2403
I2
sS'anl'
p2404
I32
sS'git'
p2405
I91
sS'dex'
p2406
I5
sS'kle'
p2407
I172
sS'dez'
p2408
I1
sS'kla'
p2409
I11
sS'dep'
p2410
I385
sS'deq'
p2411
I9
sS'der'
p2412
I3605
sS'des'
p2413
I1357
sS'det'
p2414
I341
sS'deu'
p2415
I23
sS'dev'
p2416
I249
sS'dew'
p2417
I63
sS'dei'
p2418
I24
sS'dej'
p2419
I5
sS'del'
p2420
I671
sS'dem'
p2421
I177
sS'den'
p2422
I1957
sS'isr'
p2423
I22
sS'dea'
p2424
I1561
sS'deb'
p2425
I67
sS'dec'
p2426
I594
sS'ded'
p2427
I1863
sS'dee'
p2428
I568
sS'def'
p2429
I216
sS'deg'
p2430
I122
sS'atm'
p2431
I67
sS'ps'
p2432
I1
sS'msp'
p2433
I1
sS'isu'
p2434
I54
sS'hhe'
p2435
I2
sS'uxo'
p2436
I3
sS'ati'
p2437
I4073
sS'ohi'
p2438
I5
sS'ryn'
p2439
I1
sS'ryo'
p2440
I2
sS'cso'
p2441
I1
sS'rym'
p2442
I22
sS'csi'
p2443
I2
sS'ryi'
p2444
I267
sS'ryd'
p2445
I7
sS'slo'
p2446
I170
sS'oys'
p2447
I44
sS'isi'
p2448
I755
sS'oyo'
p2449
I5
sS'oym'
p2450
I73
sS'atu'
p2451
I933
sS'oyi'
p2452
I50
sS'kcl'
p2453
I1
sS'atr'
p2454
I137
sS'oye'
p2455
I130
sS'oyd'
p2456
I13
sS'oyc'
p2457
I10
sS'rys'
p2458
I13
sS'oya'
p2459
I60
sS'isn'
p2460
I57
sS'ldy'
p2461
I2
sS'bau'
p2462
I3
sS'xub'
p2463
I2
sS'anh'
p2464
I8
sS'xul'
p2465
I14
sS'a'
p2466
I15670
sS'abe'
p2467
I99
sS'egy'
p2468
I5
sS'dsc'
p2469
I15
sS'egs'
p2470
I36
sS'egr'
p2471
I274
sS'hfu'
p2472
I87
sS'wav'
p2473
I56
sS'egu'
p2474
I124
sS'egi'
p2475
I360
sS'egh'
p2476
I6
sS'ego'
p2477
I34
sS'egm'
p2478
I6
sS'ckb'
p2479
I4
sS'hfa'
p2480
I3
sS'egb'
p2481
I11
sS'ega'
p2482
I620
sS'aty'
p2483
I7
sS'egg'
p2484
I114
sS'ege'
p2485
I102
sS'itn'
p2486
I98
sS'ito'
p2487
I176
sS'itl'
p2488
I51
sS'ith'
p2489
I7778
sS'iti'
p2490
I1494
sS'itf'
p2491
I16
sS'uvr'
p2492
I5
sS'ite'
p2493
I2410
sS'ffs'
p2494
I13
sS'ffr'
p2495
I9
sS'ita'
p2496
I699
sS'ffo'
p2497
I166
sS'uvi'
p2498
I1
sS'ffl'
p2499
I78
sS'itz'
p2500
I2
sS'myr'
p2501
I1
sS'ffi'
p2502
I566
sS'ity'
p2503
I1547
sS'uva'
p2504
I9
sS'ffe'
p2505
I1133
sS'itu'
p2506
I430
sS'itr'
p2507
I6
sS'its'
p2508
I1305
sS'ffa'
p2509
I101
sS'wre'
p2510
I162
sS'wra'
p2511
I48
sS'wro'
p2512
I328
sS'wri'
p2513
I615
sS'wru'
p2514
I18
sS'tli'
p2515
I96
sS'wry'
p2516
I2
sS'rwa'
p2517
I355
sS'cee'
p2518
I385
sS'ced'
p2519
I1128
sS'cec'
p2520
I13
sS'rwe'
p2521
I4
sS'cea'
p2522
I249
sS'gub'
p2523
I1
sS'rwh'
p2524
I24
sS'cen'
p2525
I675
sS'cem'
p2526
I78
sS'cel'
p2527
I303
sS'ye'
p2528
I73
sS'gua'
p2529
I244
sS'cei'
p2530
I516
sS'rwo'
p2531
I8
sS'cko'
p2532
I41
sS'okc'
p2533
I3
sS'dio'
p2534
I73
sS'ces'
p2535
I1401
sS'cer'
p2536
I1074
sS'cep'
p2537
I416
sS'oki'
p2538
I532
sS'okl'
p2539
I1
sS'oko'
p2540
I2
sS'sle'
p2541
I395
sS'ift'
p2542
I334
sS'ifu'
p2543
I160
sS'ynn'
p2544
I21
sS'yno'
p2545
I2
sS'yni'
p2546
I7
sS'yne'
p2547
I5
sS'ify'
p2548
I110
sS'xth'
p2549
I9
sS'ync'
p2550
I2
sS'ife'
p2551
I1132
sS'iff'
p2552
I915
sS'ynx'
p2553
I2
sS'ifa'
p2554
I1
sS'abj'
p2555
I9
sS'ifl'
p2556
I99
sS'ifo'
p2557
I11
sS'uze'
p2558
I1
sS'ifi'
p2559
I393
sS'gun'
p2560
I44
sS'onw'
p2561
I2
sS'gum'
p2562
I19
sS'kfo'
p2563
I1
sS'gul'
p2564
I148
sS'gfe'
p2565
I1
sS'iza'
p2566
I50
sS'fts'
p2567
I21
sS'ize'
p2568
I142
sS'p'
p2569
I21
sS'fty'
p2570
I53
sS'izi'
p2571
I103
sS'izn'
p2572
I2
sS'izo'
p2573
I15
sS'fte'
p2574
I1847
sS'izu'
p2575
I1
sS'fti'
p2576
I39
sS'fth'
p2577
I23
sS'izz'
p2578
I19
sS'iou'
p2579
I1309
sS'ftn'
p2580
I8
sS'pul'
p2581
I233
sS'pum'
p2582
I2
sS'pun'
p2583
I87
sS'asp'
p2584
I187
sS'mmy'
p2585
I4
sS'pui'
p2586
I1
sS'asu'
p2587
I322
sS'ast'
p2588
I3332
sS'pud'
p2589
I17
sS'pue'
p2590
I2
sS'asy'
p2591
I268
sS'pug'
p2592
I4
sS'vac'
p2593
I73
sS'pub'
p2594
I112
sS'asc'
p2595
I149
sS'baz'
p2596
I2
sS'asa'
p2597
I130
sS'sba'
p2598
I275
sS'mmi'
p2599
I170
sS'ase'
p2600
I1217
sS'rgu'
p2601
I35
sS'ask'
p2602
I1249
sS'asi'
p2603
I485
sS'ash'
p2604
I413
sS'mma'
p2605
I105
sS'guy'
p2606
I5
sS'asm'
p2607
I34
sS'asl'
p2608
I70
sS'wly'
p2609
I124
sS'rby'
p2610
I1
sS'wls'
p2611
I6
sS'iom'
p2612
I1
sS'zja'
p2613
I1
sS'evu'
p2614
I1
sS'wli'
p2615
I23
sS'wpo'
p2616
I1
sS'w'
p2617
I30
sS'xii'
p2618
I20
sS'wla'
p2619
I4
sS'sht'
p2620
I37
sS'wld'
p2621
I2
sS'wle'
p2622
I273
sS'wlf'
p2623
I1
sS'zur'
p2624
I8
sS'uel'
p2625
I157
sS'xil'
p2626
I16
sS'xim'
p2627
I8
sS'phs'
p2628
I10
sS'xin'
p2629
I34
sS'xio'
p2630
I203
sS'jer'
p2631
I5
sS'jes'
p2632
I30
sS'ckt'
p2633
I1
sS'jew'
p2634
I89
sS'jet'
p2635
I9
sS'kon'
p2636
I39
sS'dfu'
p2637
I121
sS'koe'
p2638
I1
sS'dfr'
p2639
I248
sS'jec'
p2640
I726
sS'dfo'
p2641
I16
sS'toi'
p2642
I41
sS'jef'
p2643
I7
sS'jed'
p2644
I6
sS'jee'
p2645
I1
sS'xit'
p2646
I22
sS'dfa'
p2647
I16
sS'odr'
p2648
I17
sS'jel'
p2649
I1
sS'ncy'
p2650
I220
sS'tfo'
p2651
I36
sS'uef'
p2652
I1
sS'tfi'
p2653
I4
sS'xiv'
p2654
I9
sS'roh'
p2655
I5
sS'odt'
p2656
I1
sS'ncr'
p2657
I71
sS'nct'
p2658
I200
sS'ncu'
p2659
I31
sS'nch'
p2660
I407
sS'nci'
p2661
I410
sS'nck'
p2662
I12
sS'ncl'
p2663
I418
sS'nco'
p2664
I288
sS'tfu'
p2665
I218
sS'nca'
p2666
I91
sS'ueb'
p2667
I3
sS'nce'
p2668
I6582
sS'ckv'
p2669
I1
sS'ste'
p2670
I3993
sS'dti'
p2671
I9
sS'dth'
p2672
I19
sS'sta'
p2673
I3640
sS'aac'
p2674
I2
sS'stc'
p2675
I25
sS'stl'
p2676
I373
sS'stm'
p2677
I29
sS'stn'
p2678
I43
sS'sto'
p2679
I2124
sS'sth'
p2680
I1
sS'sti'
p2681
I3102
sS'buc'
p2682
I15
sS'eeh'
p2683
I6
sS'stu'
p2684
I390
sS'stw'
p2685
I14
sS'stp'
p2686
I8
sS'str'
p2687
I3121
sS'sts'
p2688
I314
sS'sty'
p2689
I125
sS'odm'
p2690
I2
sS'tsm'
p2691
I4
sS'roj'
p2692
I24
sS'odn'
p2693
I23
sS'bho'
p2694
I20
sS'uez'
p2695
I1
sS'ofl'
p2696
I2
sS'uet'
p2697
I21
sS'ci'
p2698
I1
sS'odb'
p2699
I2
sS'lid'
p2700
I133
sS'lie'
p2701
I1718
sS'lif'
p2702
I1317
sS'lig'
p2703
I1276
sS'lia'
p2704
I386
sS'lib'
p2705
I286
sS'lic'
p2706
I633
sS'lil'
p2707
I20
sS'lim'
p2708
I477
sS'lin'
p2709
I3243
sS'ell'
p2710
I3500
sS'eft'
p2711
I917
sS'efu'
p2712
I530
sS'lik'
p2713
I1521
sS'lit'
p2714
I2225
sS'efi'
p2715
I162
sS'liv'
p2716
I834
sS'lip'
p2717
I430
sS'liq'
p2718
I15
sS'lir'
p2719
I25
sS'lis'
p2720
I853
sS'efa'
p2721
I45
sS'uer'
p2722
I50
sS'lix'
p2723
I10
sS'efe'
p2724
I325
sS'liz'
p2725
I54
sS'rhy'
p2726
I4
sS'abu'
p2727
I34
sS'kag'
p2728
I3
sS'buf'
p2729
I10
sS'elm'
p2730
I85
sS'ofu'
p2731
I7
sS'rhu'
p2732
I1
sS'kan'
p2733
I1
sS'hi'
p2734
I1
sS'kal'
p2735
I2
sS'rhi'
p2736
I2
sS'kar'
p2737
I4
sS'opf'
p2738
I10
sS'kav'
p2739
I1
sS'rho'
p2740
I142
sS'kat'
p2741
I24
sS'rha'
p2742
I310
sS'kax'
p2743
I3
sS'rhe'
p2744
I28
sS'bac'
p2745
I1242
sS'exe'
p2746
I190
sS'exc'
p2747
I833
sS'tpa'
p2748
I2
sS'exa'
p2749
I419
sS'tpo'
p2750
I7
sS'exo'
p2751
I15
sS'exl'
p2752
I2
sS'tpl'
p2753
I1
sS'exh'
p2754
I97
sS'exi'
p2755
I274
sS'ext'
p2756
I976
sS'exu'
p2757
I16
sS'exp'
p2758
I1503
sS'exq'
p2759
I25
sS'upy'
p2760
I46
sS'gam'
p2761
I40
sS'exy'
p2762
I1
sS'rte'
p2763
I662
sS'rtg'
p2764
I4
sS'ugh'
p2765
I4214
sS'rta'
p2766
I1165
sS'ugn'
p2767
I4
sS'ugm'
p2768
I3
sS'ugl'
p2769
I36
sS'rtm'
p2770
I66
sS'rtl'
p2771
I207
sS'rto'
p2772
I175
sS'rtn'
p2773
I75
sS'ugg'
p2774
I317
sS'rth'
p2775
I1178
sS'uge'
p2776
I55
sS'rtu'
p2777
I551
sS'rtw'
p2778
I1
sS'oje'
p2779
I24
sS'rts'
p2780
I194
sS'rtr'
p2781
I220
sS'ugs'
p2782
I8
sS'ojo'
p2783
I7
sS'cht'
p2784
I6
sS'rty'
p2785
I353
sS'ugu'
p2786
I13
sS'ghf'
p2787
I3
sS'ymp'
p2788
I125
sS'iez'
p2789
I2
sS'ies'
p2790
I1310
sS'ier'
p2791
I235
sS'ieu'
p2792
I30
sS'iet'
p2793
I710
sS'iew'
p2794
I369
sS'iev'
p2795
I584
sS'yma'
p2796
I79
sS'iek'
p2797
I22
sS'ymb'
p2798
I4
sS'yme'
p2799
I91
sS'iel'
p2800
I305
sS'ien'
p2801
I1586
sS'iec'
p2802
I148
sS'ieb'
p2803
I5
sS'ymm'
p2804
I2
sS'ied'
p2805
I1940
sS'ymo'
p2806
I34
sS'ief'
p2807
I384
sS'hip'
p2808
I263
sS'hir'
p2809
I362
sS'his'
p2810
I10216
sS'hit'
p2811
I642
sS'hiv'
p2812
I74
sS'hiz'
p2813
I5
sS'stf'
p2814
I34
sS'hia'
p2815
I14
sS'hib'
p2816
I39
sS'hic'
p2817
I3518
sS'hid'
p2818
I241
sS'hie'
p2819
I330
sS'hif'
p2820
I47
sS'hig'
p2821
I295
sS'atw'
p2822
I1
sS'hil'
p2823
I1363
sS'him'
p2824
I4850
sS'hin'
p2825
I4989
sS'hio'
p2826
I90
sS'rfs'
p2827
I1
sS'oxy'
p2828
I11
sS'rfu'
p2829
I195
sS'cru'
p2830
I303
sS'cry'
p2831
I159
sS'aam'
p2832
I3
sS'rfa'
p2833
I172
sS'cra'
p2834
I208
sS'oxi'
p2835
I24
sS'rfe'
p2836
I289
sS'cre'
p2837
I928
sS'oxe'
p2838
I22
sS'rfi'
p2839
I12
sS'cri'
p2840
I858
sS'rfo'
p2841
I86
sS'cro'
p2842
I458
sS'rfl'
p2843
I23
sS'arp'
p2844
I171
sS'sev'
p2845
I255
sS'arr'
p2846
I1661
sS'ars'
p2847
I846
sS'ses'
p2848
I977
sS'ser'
p2849
I2381
sS'seq'
p2850
I162
sS'sep'
p2851
I263
sS'tfa'
p2852
I11
sS'ary'
p2853
I1178
sS'sez'
p2854
I1
sS'sey'
p2855
I71
sS'sex'
p2856
I34
sS'seg'
p2857
I8
sS'ara'
p2858
I785
sS'see'
p2859
I2721
sS'arc'
p2860
I351
sS'ard'
p2861
I3208
sS'are'
p2862
I4628
sS'sea'
p2863
I540
sS'arg'
p2864
I457
sS'seo'
p2865
I3
sS'ari'
p2866
I1096
sS'sem'
p2867
I206
sS'sel'
p2868
I3481
sS'arl'
p2869
I659
sS'arm'
p2870
I1058
sS'arn'
p2871
I621
sS'lee'
p2872
I347
sS'hob'
p2873
I10
sS'wou'
p2874
I2233
sS'wot'
p2875
I1
sS'wov'
p2876
I5
sS'wop'
p2877
I2
sS'sfu'
p2878
I21
sS'wor'
p2879
I2392
sS'wom'
p2880
I791
sS'wol'
p2881
I14
sS'woo'
p2882
I215
sS'won'
p2883
I488
sS'nvu'
p2884
I21
sS'wok'
p2885
I45
sS'tiz'
p2886
I3
sS'woe'
p2887
I12
sS'wod'
p2888
I1
sS'wof'
p2889
I2
sS'ozl'
p2890
I1
sS'sku'
p2891
I17
sS'yde'
p2892
I458
sS'aas'
p2893
I1
sS'adw'
p2894
I7
sS'aar'
p2895
I1
sS'roe'
p2896
I6
sS'gmi'
p2897
I1
sS'uus'
p2898
I2
sS'ike'
p2899
I1568
sS'ikk'
p2900
I1
sS'weg'
p2901
I1
sS'iki'
p2902
I47
sS'yaw'
p2903
I13
sS'c'
p2904
I47
sS'sks'
p2905
I32
sS'leq'
p2906
I1
sS'pdo'
p2907
I1
sS'pde'
p2908
I2
sS'gma'
p2909
I16
sS'ufk'
p2910
I1
sS'tgu'
p2911
I1
sS'lew'
p2912
I210
sS'oqu'
p2913
I43
sS'tga'
p2914
I4
sS'lbu'
p2915
I12
sS'wel'
p2916
I1466
sS'tgo'
p2917
I71
sS'swi'
p2918
I45
sS'adf'
p2919
I106
sS'duk'
p2920
I26
sS'dul'
p2921
I130
sS'dum'
p2922
I52
sS'swo'
p2923
I42
sS'adg'
p2924
I9
sS'swa'
p2925
I61
sS'dua'
p2926
I59
sS'dub'
p2927
I2
sS'duc'
p2928
I559
sS'swe'
p2929
I1376
sS'due'
p2930
I93
sS'duf'
p2931
I6
sS'dug'
p2932
I7
sS'wep'
p2933
I55
sS'xal'
p2934
I9
sS'nau'
p2935
I61
sS'xan'
p2936
I3
sS'rao'
p2937
I100
sS'dup'
p2938
I14
sS'adb'
p2939
I2
sS'dur'
p2940
I221
sS'dus'
p2941
I84
sS'dut'
p2942
I171
sS'xag'
p2943
I21
sS'eko'
p2944
I1
sS'nri'
p2945
I44
sS'wgi'
p2946
I2
sS'nro'
p2947
I6
sS'gaz'
p2948
I103
sS'gay'
p2949
I35
sS'rdt'
p2950
I1
sS'gav'
p2951
I319
sS'gau'
p2952
I21
sS'gat'
p2953
I390
sS'gas'
p2954
I29
sS'gar'
p2955
I659
sS'nre'
p2956
I69
sS'gap'
p2957
I34
sS'gao'
p2958
I3
sS'gan'
p2959
I409
sS'nry'
p2960
I40
sS'gal'
p2961
I165
sS'gai'
p2962
I1878
sS'skl'
p2963
I12
sS'gag'
p2964
I189
sS'gad'
p2965
I3
sS'gac'
p2966
I36
sS'gab'
p2967
I38
sS'nru'
p2968
I4
sS'fut'
p2969
I188
sS'mla'
p2970
I2
sS'fur'
p2971
I331
sS'ctr'
p2972
I51
sS'mle'
p2973
I65
sS'ski'
p2974
I198
sS'cts'
p2975
I256
sS'mlo'
p2976
I1
sS'fug'
p2977
I27
sS'fue'
p2978
I1
sS'fun'
p2979
I66
sS'lbe'
p2980
I5
sS'ful'
p2981
I1714
sS'mly'
p2982
I127
sS'eke'
p2983
I102
sS'rnf'
p2984
I128
sS'vog'
p2985
I1
sS'riz'
p2986
I122
sS'rix'
p2987
I1
sS'voc'
p2988
I55
sS'riv'
p2989
I866
sS'unq'
p2990
I21
sS'rit'
p2991
I1406
sS'riu'
p2992
I48
sS'ris'
p2993
I1076
sS'rip'
p2994
I199
sS'vok'
p2995
I45
sS'rin'
p2996
I3132
sS'rio'
p2997
I781
sS'ril'
p2998
I328
sS'rim'
p2999
I377
sS'rik'
p3000
I82
sS'vor'
p3001
I36
sS'vos'
p3002
I4
sS'rif'
p3003
I264
sS'rig'
p3004
I1142
sS'rid'
p3005
I640
sS'rie'
p3006
I2480
sS'rib'
p3007
I410
sS'ric'
p3008
I787
sS'rpu'
p3009
I6
sS'ria'
p3010
I784
sS'ewi'
p3011
I84
sS'ewh'
p3012
I272
sS'ewo'
p3013
I10
sS'ewn'
p3014
I9
sS'ewl'
p3015
I16
sS'ewc'
p3016
I1
sS'ewa'
p3017
I90
sS'ckw'
p3018
I183
sS'ewf'
p3019
I1
sS'ewe'
p3020
I210
sS'ewd'
p3021
I8
sS'mos'
p3022
I975
sS'ewy'
p3023
I4
sS'ews'
p3024
I233
sS'ewp'
p3025
I1
sS'ewt'
p3026
I7
sS'syc'
p3027
I7
sS'syb'
p3028
I43
sS'mop'
p3029
I5
sS'eky'
p3030
I99
sS'dge'
p3031
I1110
sS'syi'
p3032
I3
sS'dgi'
p3033
I73
sS'syn'
p3034
I3
sS'sym'
p3035
I130
sS'dgm'
p3036
I60
sS'sys'
p3037
I25
sS'syr'
p3038
I3
sS'ctm'
p3039
I1
sS'pse'
p3040
I149
sS'ctn'
p3041
I15
sS'kno'
p3042
I1813
sS'usc'
p3043
I36
sS'rdn'
p3044
I14
sS'gst'
p3045
I48
sS'kni'
p3046
I66
sS'bod'
p3047
I512
sS'kne'
p3048
I697
sS'kna'
p3049
I18
sS'moh'
p3050
I3
sS'y'
p3051
I7
sS'knu'
p3052
I8
sS'abd'
p3053
I1
sS'efr'
p3054
I54
sS'cic'
p3055
I2
sS'lda'
p3056
I3
sS'lio'
p3057
I70
sS'lde'
p3058
I502
sS'lih'
p3059
I4
sS'ldi'
p3060
I170
sS'ldh'
p3061
I23
sS'ldo'
p3062
I35
sS'ldn'
p3063
I220
sS'ldl'
p3064
I77
sS'lds'
p3065
I69
sS'ldr'
p3066
I141
sS'mob'
p3067
I6
sS'ad'
p3068
I1
sS'cod'
p3069
I2
sS'fne'
p3070
I3
sS'moa'
p3071
I28
sS'cib'
p3072
I6
sS'rgr'
p3073
I13
sS'cut'
p3074
I182
sS'cus'
p3075
I358
sS'cur'
p3076
I788
sS'rwi'
p3077
I60
sS'cup'
p3078
I270
sS'rgy'
p3079
I102
sS'cuy'
p3080
I1
sS'rga'
p3081
I67
sS'cue'
p3082
I22
sS'cud'
p3083
I9
sS'cuc'
p3084
I2
sS'rge'
p3085
I1195
sS'cua'
p3086
I1
sS'aps'
p3087
I389
sS'cuo'
p3088
I3
sS'rgi'
p3089
I241
sS'cum'
p3090
I428
sS'cul'
p3091
I617
sS'rgl'
p3092
I4
sS'wim'
p3093
I9
sS'cui'
p3094
I10
sS'elv'
p3095
I293
sS'bin'
p3096
I218
sS'bio'
p3097
I7
sS'bil'
p3098
I294
sS'sgr'
p3099
I46
sS'big'
p3100
I43
sS'bid'
p3101
I149
sS'efo'
p3102
I1612
sS'pig'
p3103
I16
sS'bic'
p3104
I3
sS'bia'
p3105
I9
sS'bit'
p3106
I451
sS'bir'
p3107
I203
sS'bis'
p3108
I15
sS'd'
p3109
I145
sS'eez'
p3110
I41
sS'eet'
p3111
I841
sS'eev'
p3112
I27
sS'eep'
p3113
I1214
sS'ees'
p3114
I249
sS'eer'
p3115
I245
sS'eem'
p3116
I840
sS'eel'
p3117
I801
sS'een'
p3118
I3239
sS'eei'
p3119
I148
sS'eff'
p3120
I298
sS'eek'
p3121
I451
sS'usb'
p3122
I280
sS'eed'
p3123
I1239
sS'eeg'
p3124
I58
sS'elt'
p3125
I684
sS'eea'
p3126
I54
sS'eec'
p3127
I81
sS'wir'
p3128
I11
sS'ipt'
p3129
I140
sS'kab'
p3130
I78
sS'pph'
p3131
I1
sS'vyi'
p3132
I1
sS'apm'
p3133
I5
sS'nzy'
p3134
I19
sS'saa'
p3135
I2
sS'ohe'
p3136
I10
sS'elu'
p3137
I82
sS'ysh'
p3138
I103
sS'bsy'
p3139
I1
sS'kbr'
p3140
I1
sS'pet'
p3141
I276
sS'peu'
p3142
I3
sS'pew'
p3143
I5
sS'per'
p3144
I4520
sS'pes'
p3145
I203
sS'pel'
p3146
I171
sS'pem'
p3147
I14
sS'pen'
p3148
I1890
sS'peo'
p3149
I352
sS'pek'
p3150
I1
sS'ped'
p3151
I1022
sS'pee'
p3152
I151
sS'pef'
p3153
I20
sS'peg'
p3154
I6
sS'pea'
p3155
I1948
sS'peb'
p3156
I6
sS'pec'
p3157
I1292
sS'be'
p3158
I4185
sS'ruh'
p3159
I1
sS'rui'
p3160
I89
sS'run'
p3161
I290
sS'ruo'
p3162
I4
sS'rul'
p3163
I120
sS'rum'
p3164
I123
sS'rub'
p3165
I155
sS'ruc'
p3166
I311
sS'lgi'
p3167
I4
sS'rua'
p3168
I9
sS'ruf'
p3169
I261
sS'rug'
p3170
I139
sS'uff'
p3171
I947
sS'rue'
p3172
I296
sS'oei'
p3173
I1
sS'zzl'
p3174
I92
sS'oeo'
p3175
I1
sS'oen'
p3176
I3
sS'oem'
p3177
I11
sS'wbo'
p3178
I2
sS'rur'
p3179
I2
sS'rus'
p3180
I700
sS'rup'
p3181
I201
sS'lmi'
p3182
I77
sS'uft'
p3183
I5
sS'by'
p3184
I3560
sS'rut'
p3185
I326
sS'che'
p3186
I2766
sS'ylv'
p3187
I1
sS'ahl'
p3188
I2
sS'ylu'
p3189
I84
sS'ada'
p3190
I196
sS'ylp'
p3191
I2
sS'idy'
p3192
I20
sS'idw'
p3193
I1
sS'am'
p3194
I1388
sS'idu'
p3195
I32
sS'ids'
p3196
I98
sS'yly'
p3197
I4
sS'idn'
p3198
I164
sS'ido'
p3199
I76
sS'idl'
p3200
I147
sS'yle'
p3201
I32
sS'idi'
p3202
I213
sS'idg'
p3203
I237
sS'idd'
p3204
I234
sS'ide'
p3205
I3192
sS'yli'
p3206
I39
sS'ppl'
p3207
I185
sS'nsi'
p3208
I917
sS'fem'
p3209
I48
sS'nsl'
p3210
I21
sS'nsm'
p3211
I11
sS'nsn'
p3212
I3
sS'nso'
p3213
I165
sS'oha'
p3214
I3
sS'nsa'
p3215
I126
sS'nsb'
p3216
I13
sS'nsc'
p3217
I267
sS'nse'
p3218
I860
sS'nsf'
p3219
I49
sS'nsg'
p3220
I4
sS'ayf'
p3221
I7
sS'nsy'
p3222
I1
sS'chn'
p3223
I10
sS'nsp'
p3224
I152
sS'ush'
p3225
I451
sS'nst'
p3226
I1452
sS'nsu'
p3227
I209
sS'nsw'
p3228
I1083
sS'xpi'
p3229
I15
sS'ixi'
p3230
I20
sS'xpo'
p3231
I52
sS'xpl'
p3232
I349
sS'pru'
p3233
I27
sS'xpa'
p3234
I20
sS'chr'
p3235
I131
sS'xpe'
p3236
I702
sS'ixe'
p3237
I106
sS'feu'
p3238
I3
sS'yrl'
p3239
I54
sS'xpr'
p3240
I378
sS'ixp'
p3241
I13
sS'ahs'
p3242
I5
sS'ixt'
p3243
I58
sS'fes'
p3244
I282
sS'aqu'
p3245
I5
sS'wnc'
p3246
I1
sS'pwr'
p3247
I3
sS'sdr'
p3248
I2
sS'wne'
p3249
I106
sS'wnh'
p3250
I1
sS'chw'
p3251
I8
sS'wnm'
p3252
I1
sS'wnr'
p3253
I22
sS'wns'
p3254
I103
sS'sda'
p3255
I85
sS'pwa'
p3256
I11
sS'sun'
p3257
I303
sS'sdo'
p3258
I10
sS'ayw'
p3259
I8
sS'pwi'
p3260
I3
sS'utb'
p3261
I22
sS'utc'
p3262
I37
sS'cia'
p3263
I331
sS'uta'
p3264
I76
sS'cig'
p3265
I43
sS'cif'
p3266
I41
sS'cie'
p3267
I433
sS'ute'
p3268
I797
sS'ut'
p3269
I2
sS'uth'
p3270
I600
sS'uti'
p3271
I499
sS'cio'
p3272
I479
sS'up'
p3273
I1700
sS'us'
p3274
I1182
sS'cil'
p3275
I142
sS'cis'
p3276
I148
sS'cir'
p3277
I343
sS'cip'
p3278
I183
sS'civ'
p3279
I826
sS'utt'
p3280
I556
sS'utu'
p3281
I236
sS'ud'
p3282
I1
sS'uty'
p3283
I228
sS'lyt'
p3284
I1
sS'ooe'
p3285
I2
sS'v'
p3286
I15
sS'lyp'
p3287
I3
sS'cin'
p3288
I328
sS'dof'
p3289
I2
sS'enp'
p3290
I2
sS'tdr'
p3291
I1
sS'lpr'
p3292
I1
sS'lyd'
p3293
I355
sS'yro'
p3294
I3
sS'vot'
p3295
I70
sS'giu'
p3296
I2
sS'lyc'
p3297
I1
sS'lyl'
p3298
I3
sS'lym'
p3299
I5
sS'lyn'
p3300
I22
sS'lyo'
p3301
I2
sS'lyh'
p3302
I1
sS'lyi'
p3303
I106
sS'nab'
p3304
I210
sS'nac'
p3305
I118
sS'naa'
p3306
I1
sS'naf'
p3307
I15
sS'nag'
p3308
I108
sS'nad'
p3309
I9
sS'nae'
p3310
I2
sS'nak'
p3311
I15
sS'nah'
p3312
I48
sS'nai'
p3313
I40
sS'nan'
p3314
I226
sS'nao'
p3315
I2
sS'nal'
p3316
I631
sS'nam'
p3317
I584
sS'vou'
p3318
I376
sS'nas'
p3319
I31
sS'nap'
p3320
I39
sS'gre'
p3321
I1294
sS'nav'
p3322
I12
sS'naw'
p3323
I25
sS'nat'
p3324
I1366
sS'gra'
p3325
I1270
sS'naz'
p3326
I1
sS'gro'
p3327
I560
sS'nay'
p3328
I40
sS'gri'
p3329
I251
sS'jek'
p3330
I99
sS'ovi'
p3331
I227
sS'lph'
p3332
I5
sS'kme'
p3333
I6
sS'ppu'
p3334
I1
sS'dos'
p3335
I42
sS'je'
p3336
I7
sS'dop'
p3337
I59
sS'ago'
p3338
I155
sS'agn'
p3339
I67
sS'dvo'
p3340
I6
sS'agl'
p3341
I7
sS'e'
p3342
I17
sS'agi'
p3343
I274
sS'agh'
p3344
I6
sS'dve'
p3345
I86
sS'age'
p3346
I2101
sS'agd'
p3347
I4
sS'vow'
p3348
I27
sS'aga'
p3349
I1717
sS'yoa'
p3350
I1
sS'dds'
p3351
I7
sS'dot'
p3352
I18
sS'at'
p3353
I6103
sS'agu'
p3354
I71
sS'ags'
p3355
I27
sS'agr'
p3356
I163
sS'kip'
p3357
I6
sS'agp'
p3358
I2
sS'edb'
p3359
I6
sS'edc'
p3360
I11
sS'eda'
p3361
I17
sS'edf'
p3362
I15
sS'edg'
p3363
I799
sS'edd'
p3364
I63
sS'ede'
p3365
I277
sS'edi'
p3366
I734
sS'edn'
p3367
I80
sS'edo'
p3368
I51
sS'edl'
p3369
I243
sS'enb'
p3370
I1
sS'edr'
p3371
I94
sS'eds'
p3372
I134
sS'rtf'
p3373
I22
sS'edw'
p3374
I52
sS'edt'
p3375
I10
sS'edu'
p3376
I73
sS'go'
p3377
I958
sS'ugo'
p3378
I1
sS'bvi'
p3379
I27
sS'edy'
p3380
I49
sS'gi'
p3381
I2
sS'lko'
p3382
I10
sS'rtc'
p3383
I2
sS'lki'
p3384
I238
sS'lke'
p3385
I268
sS'lka'
p3386
I8
sS'oyh'
p3387
I1
sS'lky'
p3388
I15
sS'ooz'
p3389
I7
sS'lks'
p3390
I51
sS'esb'
p3391
I39
sS'cdo'
p3392
I5
sS'kca'
p3393
I3
sS'rti'
p3394
I734
sS'ugf'
p3395
I1
sS'hak'
p3396
I197
sS'tmi'
p3397
I1
sS'asq'
p3398
I5
sS'tri'
p3399
I1153
sS'evi'
p3400
I720
sS'kse'
p3401
I2
sS'tro'
p3402
I904
sS'evo'
p3403
I182
sS'tra'
p3404
I2514
sS'eva'
p3405
I81
sS'tre'
p3406
I1689
sS'eve'
p3407
I5362
sS'try'
p3408
I677
sS'evy'
p3409
I3
sS'uls'
p3410
I139
sS'tmo'
p3411
I57
sS'tru'
p3412
I1317
sS'ulp'
p3413
I14
sS'rro'
p3414
I678
sS'ody'
p3415
I481
sS'uen'
p3416
I401
sS'sut'
p3417
I1
sS'rri'
p3418
I1398
sS'uee'
p3419
I50
sS'ued'
p3420
I344
sS'rre'
p3421
I579
sS'ods'
p3422
I44
sS'uea'
p3423
I13
sS'odu'
p3424
I260
sS'rra'
p3425
I484
sS'cav'
p3426
I20
sS'odh'
p3427
I6
sS'odi'
p3428
I102
sS'odk'
p3429
I1
sS'odl'
p3430
I16
sS'ult'
p3431
I741
sS'rry'
p3432
I500
sS'odo'
p3433
I15
sS'oda'
p3434
I33
sS'rru'
p3435
I107
sS'ulu'
p3436
I4
sS'odd'
p3437
I164
sS'ode'
p3438
I219
sS'ues'
p3439
I978
sS'odg'
p3440
I147
sS'fli'
p3441
I193
sS'oyf'
p3442
I6
sS'pki'
p3443
I1
sS'mny'
p3444
I1
sS'iby'
p3445
I3
sS'bdo'
p3446
I1
sS'umy'
p3447
I1
sS'bdi'
p3448
I1
sS'ulh'
p3449
I4
sS'bdu'
p3450
I34
sS'ych'
p3451
I7
sS'yco'
p3452
I2
sS'rtb'
p3453
I9
sS'ycl'
p3454
I4
sS'yce'
p3455
I13
sS'ulo'
p3456
I59
sS'pma'
p3457
I5
sS'lea'
p3458
I2546
sS'leb'
p3459
I31
sS'lec'
p3460
I429
sS'led'
p3461
I2463
sS'cam'
p3462
I989
sS'lef'
p3463
I919
sS'leg'
p3464
I244
sS'leh'
p3465
I59
sS'lei'
p3466
I39
sS'fau'
p3467
I101
sS'ulm'
p3468
I4
sS'lel'
p3469
I18
sS'lem'
p3470
I678
sS'len'
p3471
I1273
sS'ozi'
p3472
I8
sS'lep'
p3473
I57
sS'cac'
p3474
I31
sS'ler'
p3475
I454
sS'les'
p3476
I2167
sS'let'
p3477
I1863
sS'leu'
p3478
I2
sS'lev'
p3479
I162
sS'cab'
p3480
I169
sS'lex'
p3481
I102
sS'ley'
p3482
I138
sS'lez'
p3483
I2
sS'b'
p3484
I4
sS'rdu'
p3485
I1
sS'ctu'
p3486
I331
sS'ibs'
p3487
I9
sS'xam'
p3488
I183
sS'rds'
p3489
I1439
sS'rdr'
p3490
I25
sS'isq'
p3491
I6
sS'ulf'
p3492
I37
sS'rdy'
p3493
I12
sS'ibu'
p3494
I76
sS'rde'
p3495
I822
sS'cte'
p3496
I1081
sS'ctf'
p3497
I23
sS'rdf'
p3498
I1
sS'rda'
p3499
I162
sS'cta'
p3500
I221
sS'syl'
p3501
I107
sS'rdb'
p3502
I3
sS'ctl'
p3503
I398
sS'rdl'
p3504
I269
sS'rdo'
p3505
I119
sS'cto'
p3506
I389
sS'rdi'
p3507
I412
sS'cti'
p3508
I1587
sS'wig'
p3509
I10
sS'wif'
p3510
I392
sS'wie'
p3511
I4
sS'wid'
p3512
I96
sS'wic'
p3513
I192
sS'haa'
p3514
I1
sS'apr'
p3515
I55
sS'win'
p3516
I1520
sS'app'
p3517
I2292
sS'wil'
p3518
I2485
sS'sgu'
p3519
I86
sS'apw'
p3520
I3
sS'apt'
p3521
I224
sS'sgi'
p3522
I13
sS'wiv'
p3523
I12
sS'aph'
p3524
I56
sS'wit'
p3525
I7282
sS'wis'
p3526
I760
sS'apo'
p3527
I111
sS'apl'
p3528
I9
sS'wip'
p3529
I24
sS'voy'
p3530
I19
sS'apa'
p3531
I318
sS'huf'
p3532
I3
sS'enk'
p3533
I4
sS'apd'
p3534
I1
sS'ape'
p3535
I559
sS'cha'
p3536
I2225
sS'use'
p3537
I3416
sS'fee'
p3538
I933
sS'chd'
p3539
I3
sS'fec'
p3540
I579
sS'usa'
p3541
I172
sS'fea'
p3542
I470
sS'fen'
p3543
I130
sS'usn'
p3544
I46
sS'fel'
p3545
I867
sS'usl'
p3546
I396
sS'usk'
p3547
I39
sS'chm'
p3548
I69
sS'usi'
p3549
I856
sS'cho'
p3550
I531
sS'fev'
p3551
I100
sS'few'
p3552
I387
sS'usu'
p3553
I250
sS'ust'
p3554
I2731
sS'fer'
p3555
I1195
sS'chu'
p3556
I241
sS'usq'
p3557
I1
sS'usp'
p3558
I383
sS'zin'
p3559
I159
sS'chy'
p3560
I56
sS'zil'
p3561
I38
sS'kya'
p3562
I4
sS'usy'
p3563
I47
sS'ymd'
p3564
I1
sS'hac'
p3565
I8
sS'gze'
p3566
I2
sS'acb'
p3567
I1
sS'xvi'
p3568
I22
sS'xco'
p3569
I2
sS'pfu'
p3570
I1
sS'enm'
p3571
I14
sS'iii'
p3572
I47
sS'tsk'
p3573
I4
sS'tad'
p3574
I2
sS'hwe'
p3575
I2
sS'f'
p3576
I5
sS'ocu'
p3577
I74
sS'oh'
p3578
I397
sS'npl'
p3579
I33
sS'ieg'
p3580
I3
sS'ymn'
p3581
I9
sS'tat'
p3582
I1135
sS'tau'
p3583
I48
sS'tav'
p3584
I11
sS'taw'
p3585
I11
sS'tap'
p3586
I27
sS'tar'
p3587
I655
sS'tas'
p3588
I203
sS'jen'
p3589
I103
sS'xch'
p3590
I39
sS'xci'
p3591
I139
sS'tax'
p3592
I4
sS'tay'
p3593
I240
sS'xcl'
p3594
I205
sS'xcr'
p3595
I2
sS'tae'
p3596
I1
sS'taf'
p3597
I4
sS'tag'
p3598
I257
sS'xcv'
p3599
I1
sS'taa'
p3600
I1
sS'tab'
p3601
I862
sS'tac'
p3602
I238
sS'tal'
p3603
I1091
sS'tam'
p3604
I88
sS'tan'
p3605
I1786
sS'kru'
p3606
I2
sS'tai'
p3607
I1686
sS'bow'
p3608
I116
sS'tak'
p3609
I1440
sS'afl'
p3610
I5
sS'sir'
p3611
I1717
sS'afo'
p3612
I16
sS'siv'
p3613
I171
sS'siu'
p3614
I4
sS'sit'
p3615
I1698
sS'afe'
p3616
I196
sS'aff'
p3617
I411
sS'six'
p3618
I164
sS'afa'
p3619
I4
sS'lpt'
p3620
I3
sS'sic'
p3621
I274
sS'sib'
p3622
I713
sS'sia'
p3623
I30
sS'dwa'
p3624
I70
sS'sig'
p3625
I642
sS'afy'
p3626
I3
sS'sie'
p3627
I209
sS'sid'
p3628
I1582
sS'aft'
p3629
I1518
sS'dwi'
p3630
I10
sS'sio'
p3631
I1565
sS'sin'
p3632
I2152
sS'sim'
p3633
I195
sS'sil'
p3634
I622
sS'sis'
p3635
I799
sS'npo'
p3636
I10
sS'de'
p3637
I36
sS'npi'
p3638
I2
sS'npe'
p3639
I3
sS'ox'
p3640
I1
sS'npa'
p3641
I13
sS'lps'
p3642
I4
sS'sip'
p3643
I36
sS'npu'
p3644
I2
sS'ou'
p3645
I1
sS'npr'
p3646
I22
sS'yfu'
p3647
I9
sS'jin'
p3648
I3
sS'dud'
p3649
I1
sS'mpn'
p3650
I1
sS'siz'
p3651
I34
sS'xqu'
p3652
I25
sS'uac'
p3653
I6
sS'kbi'
p3654
I1
sS'kbo'
p3655
I4
sS'enh'
p3656
I2
sS'kbe'
p3657
I1
sS'yna'
p3658
I6
sS'kif'
p3659
I1
sS'jeo'
p3660
I1
sS'eum'
p3661
I5
sS'eul'
p3662
I5
sS'le'
p3663
I8
sS'eui'
p3664
I1
sS'yru'
p3665
I1
sS'tsh'
p3666
I8
sS'tsi'
p3667
I104
sS'lo'
p3668
I3
sS'll'
p3669
I564
sS'tse'
p3670
I185
sS'byr'
p3671
I7
sS'bys'
p3672
I5
sS'euc'
p3673
I19
sS'oby'
p3674
I4
sS'byl'
p3675
I4
sS'eux'
p3676
I1
sS'byi'
p3677
I1
sS'kie'
p3678
I8
sS'eut'
p3679
I6
sS'tst'
p3680
I63
sS'bye'
p3681
I60
sS'eup'
p3682
I24
sS'eus'
p3683
I3
sS'eur'
p3684
I62
sS'dad'
p3685
I6
sS'dag'
p3686
I31
sS'dab'
p3687
I19
sS'dac'
p3688
I27
sS'dal'
p3689
I62
sS'dam'
p3690
I267
sS'dan'
p3691
I331
sS'dwe'
p3692
I59
sS'dah'
p3693
I26
sS'dai'
p3694
I83
sS'dat'
p3695
I188
sS'dau'
p3696
I253
sS'dav'
p3697
I4
sS'daw'
p3698
I104
sS'dap'
p3699
I8
sS'dar'
p3700
I628
sS'das'
p3701
I43
sS'bar'
p3702
I314
sS'day'
p3703
I1786
sS'daz'
p3704
I12
sS'nfe'
p3705
I252
sS'nfa'
p3706
I70
sS'env'
p3707
I55
sS'nfo'
p3708
I424
sS'loz'
p3709
I1
sS'nfl'
p3710
I217
sS'nfi'
p3711
I415
sS'dwo'
p3712
I3
sS'nfu'
p3713
I234
sS'nfr'
p3714
I28
sS'lfe'
p3715
I2
sS'lpm'
p3716
I2
sS'oui'
p3717
I60
sS'lfa'
p3718
I5
sS'oun'
p3719
I3945
sS'hly'
p3720
I160
sS'oul'
p3721
I5578
sS'ouc'
p3722
I238
sS'oub'
p3723
I738
sS'tch'
p3724
I1022
sS'oug'
p3725
I3401
sS'ouf'
p3726
I2
sS'oue'
p3727
I8
sS'oud'
p3728
I289
sS'lfu'
p3729
I11
sS'lft'
p3730
I2
sS'sve'
p3731
I1
sS'sne'
p3732
I129
sS'lfp'
p3733
I2
sS'hli'
p3734
I4
sS'wes'
p3735
I73
sS'ous'
p3736
I4076
sS'our'
p3737
I6946
sS'hle'
p3738
I93
sS'oup'
p3739
I60
sS'ouv'
p3740
I11
sS'hla'
p3741
I1
sS'out'
p3742
I4648
sS'rez'
p3743
I1
sS'baf'
p3744
I23
sS'rey'
p3745
I361
sS'zar'
p3746
I35
sS'rer'
p3747
I225
sS'res'
p3748
I6167
sS'rep'
p3749
I1380
sS'req'
p3750
I269
sS'rev'
p3751
I487
sS'rew'
p3752
I485
sS'ret'
p3753
I2021
sS'reu'
p3754
I26
sS'puz'
p3755
I73
sS'rek'
p3756
I2
sS'reh'
p3757
I193
sS'rei'
p3758
I191
sS'ren'
p3759
I1126
sS'reo'
p3760
I33
sS'rel'
p3761
I1258
sS'rem'
p3762
I1672
sS'reb'
p3763
I44
sS'rec'
p3764
I1847
sS'rea'
p3765
I4753
sS'ref'
p3766
I831
sS'reg'
p3767
I459
sS'red'
p3768
I5471
sS'ree'
p3769
I1509
sS'lob'
p3770
I17
sS'ece'
p3771
I1082
sS'maz'
p3772
I59
sS'ecc'
p3773
I13
sS'eca'
p3774
I700
sS'heu'
p3775
I5
sS'eco'
p3776
I1101
sS'ecl'
p3777
I261
sS'eck'
p3778
I265
sS'eci'
p3779
I460
sS'ech'
p3780
I168
sS'qua'
p3781
I578
sS'ecu'
p3782
I281
sS'ect'
p3783
I3503
sS'que'
p3784
I1174
sS'ecr'
p3785
I359
sS'x'
p3786
I7
sS'qui'
p3787
I1940
sS'hep'
p3788
I3
sS'oxf'
p3789
I6
sS'ecy'
p3790
I19
sS'heq'
p3791
I30
sS'lts'
p3792
I90
sS'ltr'
p3793
I15
sS'oxg'
p3794
I1
sS'lod'
p3795
I113
sS'ltu'
p3796
I8
sS'ltz'
p3797
I2
sS'lty'
p3798
I180
sS'loe'
p3799
I3
sS'put'
p3800
I912
sS'vab'
p3801
I27
sS'lta'
p3802
I37
sS'mab'
p3803
I24
sS'lte'
p3804
I424
sS'rcu'
p3805
I301
sS'mae'
p3806
I1
sS'lti'
p3807
I159
sS'lth'
p3808
I221
sS'lto'
p3809
I54
sS'aor'
p3810
I100
sS'sew'
p3811
I57
sS'zig'
p3812
I1
sS'arq'
p3813
I2
sS'seu'
p3814
I6
sS'yre'
p3815
I106
sS'set'
p3816
I729
sS'iho'
p3817
I6
sS'art'
p3818
I3037
sS'aru'
p3819
I2
sS'hed'
p3820
I1829
sS'arv'
p3821
I99
sS'hee'
p3822
I426
sS'arw'
p3823
I7
sS'sde'
p3824
I10
sS'hef'
p3825
I14
sS'kul'
p3826
I15
sS'loq'
p3827
I33
sS'wiz'
p3828
I2
sS'mno'
p3829
I2
sS'low'
p3830
I1966
sS'udr'
p3831
I1
sS'uds'
p3832
I43
sS'rso'
p3833
I865
sS'rsh'
p3834
I93
sS'lot'
p3835
I248
sS'udu'
p3836
I2
sS'ogu'
p3837
I24
sS'rse'
p3838
I1847
sS'hec'
p3839
I81
sS'rsa'
p3840
I182
sS'ogs'
p3841
I48
sS'ogr'
p3842
I76
sS'ogm'
p3843
I3
sS'ogl'
p3844
I7
sS'ogo'
p3845
I2
sS'uda'
p3846
I54
sS'ogi'
p3847
I46
sS'udg'
p3848
I173
sS'udd'
p3849
I473
sS'ude'
p3850
I401
sS'rst'
p3851
I1808
sS'rsu'
p3852
I192
sS'cyi'
p3853
I7
sS'udi'
p3854
I180
sS'oga'
p3855
I19
sS'udo'
p3856
I20
sS'udl'
p3857
I24
sS'rdc'
p3858
I2
sS'thq'
p3859
I4
sS'beh'
p3860
I335
sS'bei'
p3861
I659
sS'ben'
p3862
I294
sS'beo'
p3863
I1
sS'bel'
p3864
I862
sS'sef'
p3865
I45
sS'bec'
p3866
I708
sS'ybr'
p3867
I2
sS'bea'
p3868
I663
sS'bef'
p3869
I1485
sS'beg'
p3870
I843
sS'bed'
p3871
I834
sS'bee'
p3872
I2062
sS'bez'
p3873
I8
sS'ybi'
p3874
I42
sS'bex'
p3875
I2
sS'sed'
p3876
I3254
sS'ybo'
p3877
I168
sS'ber'
p3878
I1148
sS'sec'
p3879
I845
sS'beq'
p3880
I13
sS'bev'
p3881
I4
sS'bew'
p3882
I65
sS'bet'
p3883
I1399
sS'seb'
p3884
I54
sS'bie'
p3885
I19
sS'arf'
p3886
I68
sS'nqu'
p3887
I541
sS'soj'
p3888
I7
sS'bux'
p3889
I3
sS'sen'
p3890
I2282
sS'kyr'
p3891
I55
sS'iba'
p3892
I22
sS'bib'
p3893
I24
sS'ark'
p3894
I956
sS'mim'
p3895
I8
sS'mil'
p3896
I948
sS'mio'
p3897
I4
sS'min'
p3898
I2953
sS'mia'
p3899
I37
sS'sek'
p3900
I88
sS'mic'
p3901
I108
sS'mie'
p3902
I38
sS'mid'
p3903
I220
sS'mig'
p3904
I987
sS'mix'
p3905
I40
sS'sei'
p3906
I101
sS'mis'
p3907
I2831
sS'mir'
p3908
I167
sS'miu'
p3909
I1
sS'mit'
p3910
I551
sS'whe'
p3911
I4154
sS'xor'
p3912
I8
sS'wha'
p3913
I2987
sS'awy'
p3914
I183
sS'mut'
p3915
I117
sS'jun'
p3916
I79
sS'pyr'
p3917
I5
sS'who'
p3918
I2288
sS'aws'
p3919
I112
sS'whi'
p3920
I4836
sS'awo'
p3921
I17
sS'awn'
p3922
I196
sS'awl'
p3923
I85
sS'awk'
p3924
I36
sS'but'
p3925
I3898
sS'awi'
p3926
I236
sS'awh'
p3927
I8
sS'vii'
p3928
I34
sS'awf'
p3929
I57
sS'awe'
p3930
I114
sS'sfe'
p3931
I12
sS'kke'
p3932
I1
sS'why'
p3933
I492
sS'awa'
p3934
I889
sS'sfa'
p3935
I65
sS'cke'
p3936
I761
sS'ure'
p3937
I3016
sS'urf'
p3938
I52
sS'urg'
p3939
I96
sS'cka'
p3940
I17
sS'ura'
p3941
I1049
sS'urb'
p3942
I170
sS'urc'
p3943
I321
sS'url'
p3944
I101
sS'ckl'
p3945
I215
sS'urn'
p3946
I2061
sS'ckn'
p3947
I132
sS'cki'
p3948
I165
sS'uri'
p3949
I676
sS'urk'
p3950
I26
sS'urt'
p3951
I528
sS'uru'
p3952
I2
sS'urv'
p3953
I61
sS'bem'
p3954
I4
sS'urp'
p3955
I538
sS'urq'
p3956
I1
sS'cks'
p3957
I173
sS'urs'
p3958
I1684
sS'cky'
p3959
I36
sS'ury'
p3960
I149
sS'urz'
p3961
I4
sS'igy'
p3962
I4
sS'dbi'
p3963
I2
sS'dbo'
p3964
I3
sS'dba'
p3965
I3
sS'dby'
p3966
I1
sS'wos'
p3967
I3
sS'eap'
p3968
I113
sS'dbr'
p3969
I1
sS'dbu'
p3970
I6
sS'zoo'
p3971
I2
sS'ngd'
p3972
I8
sS'nge'
p3973
I2389
sS'ngf'
p3974
I1
sS'ha'
p3975
I31
sS'nga'
p3976
I169
sS'mud'
p3977
I14
sS'ngl'
p3978
I857
sS'jaw'
p3979
I10
sS'ngn'
p3980
I10
sS'ngo'
p3981
I9
sS'jar'
p3982
I18
sS'ayl'
p3983
I30
sS'jap'
p3984
I3
sS'bug'
p3985
I6
sS'jan'
p3986
I405
sS'ngu'
p3987
I394
sS'ksg'
p3988
I2
sS'irk'
p3989
I21
sS'ksa'
p3990
I32
sS'eaw'
p3991
I3
sS'ngr'
p3992
I274
sS'ngs'
p3993
I1139
sS'ksm'
p3994
I6
sS'ksl'
p3995
I1
sS'kso'
p3996
I5
sS'he'
p3997
I9455
sS'jab'
p3998
I9
sS'jac'
p3999
I51
sS'ngz'
p4000
I2
sS'wst'
p4001
I1
sS'tby'
p4002
I2
sS'irn'
p4003
I13
sS'tbr'
p4004
I21
sS'tbu'
p4005
I11
sS'llr'
p4006
I1
sS'ttu'
p4007
I2
sS'tbo'
p4008
I1
sS'mul'
p4009
I88
sS'tba'
p4010
I2
sS'irb'
p4011
I1
sS'liu'
p4012
I2
sS'shr'
p4013
I179
sS'mun'
p4014
I157
sS'qu'
p4015
I6
sS'shu'
p4016
I264
sS'shw'
p4017
I7
sS'h'
p4018
I36
sS'lst'
p4019
I15
sS'gbi'
p4020
I11
sS'sha'
p4021
I1937
sS'tth'
p4022
I2
sS'she'
p4023
I7618
sS'shf'
p4024
I3
sS'feg'
p4025
I2
sS'dpo'
p4026
I1
sS'shi'
p4027
I870
sS'shl'
p4028
I40
sS'ael'
p4029
I11
sS'shn'
p4030
I41
sS'sho'
p4031
I2474
sS'ebd'
p4032
I1
sS'ebe'
p4033
I63
sS'ssr'
p4034
I10
sS'eba'
p4035
I27
sS'ebb'
p4036
I12
sS'btr'
p4037
I7
sS'ebl'
p4038
I47
sS'ebo'
p4039
I72
sS'zbe'
p4040
I1
sS'ebt'
p4041
I46
sS'ebu'
p4042
I23
sS'btf'
p4043
I47
sS'bta'
p4044
I76
sS'ebr'
p4045
I54
sS'ebs'
p4046
I1
sS'btl'
p4047
I40
sS'bto'
p4048
I2
sS'uhl'
p4049
I1
sS'tof'
p4050
I5
sS'eby'
p4051
I7
sS'lup'
p4052
I1
sS'lur'
p4053
I68
sS'lus'
p4054
I319
sS'lut'
p4055
I320
sS'dle'
p4056
I611
sS'rkr'
p4057
I1
sS'lux'
p4058
I26
sS'dli'
p4059
I52
sS'omd'
p4060
I1
sS'dlo'
p4061
I43
sS'dll'
p4062
I2
sS'lua'
p4063
I38
sS'lub'
p4064
I35
sS'luc'
p4065
I131
sS'lud'
p4066
I147
sS'lue'
p4067
I318
sS'luf'
p4068
I1
sS'lug'
p4069
I32
sS'lui'
p4070
I7
sS'dly'
p4071
I890
sS'lsy'
p4072
I2
sS'lul'
p4073
I9
sS'lum'
p4074
I222
sS'lun'
p4075
I216
sS'luo'
p4076
I5
sS'ken'
p4077
I887
sS'jor'
p4078
I17
sS'kel'
p4079
I130
sS'jou'
p4080
I181
sS'kei'
p4081
I3
sS'jig'
p4082
I1
sS'kef'
p4083
I4
sS'kee'
p4084
I598
sS'ked'
p4085
I2824
sS'eic'
p4086
I3
sS'zzi'
p4087
I8
sS'joa'
p4088
I1
sS'job'
p4089
I9
sS'gmy'
p4090
I1
sS'wi'
p4091
I18
sS'key'
p4092
I144
sS'xas'
p4093
I13
sS'joh'
p4094
I273
sS'joi'
p4095
I163
sS'ket'
p4096
I276
sS'kes'
p4097
I259
sS'ker'
p4098
I394
sS'jon'
p4099
I5
sS'kep'
p4100
I249
sS'etr'
p4101
I216
sS'ets'
p4102
I278
sS'etw'
p4103
I489
sS'ett'
p4104
I2268
sS'etu'
p4105
I724
sS'tly'
p4106
I2002
sS'ety'
p4107
I311
sS'etb'
p4108
I1
sS'etc'
p4109
I304
sS'tla'
p4110
I31
sS'eta'
p4111
I181
sS'etf'
p4112
I20
sS'tle'
p4113
I2581
sS'ete'
p4114
I702
sS'eth'
p4115
I1459
sS'eti'
p4116
I550
sS'etn'
p4117
I13
sS'eto'
p4118
I261
sS'etl'
p4119
I184
sS'etm'
p4120
I2
sS'rps'
p4121
I17
sS'rpr'
p4122
I321
sS'co'
p4123
I6
sS'ucr'
p4124
I5
sS'cxx'
p4125
I5
sS'omt'
p4126
I2
sS'ohn'
p4127
I273
sS'ce'
p4128
I5
sS'tsc'
p4129
I9
sS'rpa'
p4130
I15
sS'uce'
p4131
I266
sS'oho'
p4132
I9
sS'ucc'
p4133
I196
sS'uca'
p4134
I40
sS'rpi'
p4135
I9
sS'rph'
p4136
I23
sS'tsa'
p4137
I1
sS'uck'
p4138
I329
sS'rpl'
p4139
I108
sS'rpo'
p4140
I294
sS'uch'
p4141
I1714
sS'bbo'
p4142
I44
sS'bbl'
p4143
I32
sS'bbi'
p4144
I42
sS'udn'
p4145
I1
sS'bbe'
p4146
I113
sS'hoe'
p4147
I57
sS'bba'
p4148
I7
sS'yar'
p4149
I148
sS'yal'
p4150
I16
sS'yan'
p4151
I52
sS'yah'
p4152
I26
sS'bby'
p4153
I28
sS'pia'
p4154
I54
sS'yag'
p4155
I11
sS'wto'
p4156
I12
sS'yaa'
p4157
I1
sS'inv'
p4158
I341
sS'yac'
p4159
I4
sS'yab'
p4160
I3
sS'oth'
p4161
I3892
sS'oti'
p4162
I681
sS'inw'
p4163
I33
sS'otl'
p4164
I22
sS'otm'
p4165
I38
sS'otn'
p4166
I2
sS'oto'
p4167
I36
sS'ota'
p4168
I69
sS'otb'
p4169
I2
sS'lga'
p4170
I15
sS'ote'
p4171
I544
sS'otf'
p4172
I4
sS'lge'
p4173
I53
sS'oty'
p4174
I5
sS'psi'
p4175
I9
sS'cor'
p4176
I717
sS'pif'
p4177
I2
sS'byg'
p4178
I10
sS'lgr'
p4179
I17
sS'unt'
p4180
I1800
sS'otr'
p4181
I20
sS'ots'
p4182
I119
sS'ott'
p4183
I388
sS'hma'
p4184
I43
sS'cot'
p4185
I134
sS'ysi'
p4186
I90
sS'euv'
p4187
I5
sS'yso'
p4188
I7
sS'unv'
p4189
I7
sS'ysm'
p4190
I9
sS'leo'
p4191
I6
sS'hoc'
p4192
I121
sS'rbu'
p4193
I3
sS'unw'
p4194
I89
sS'rbs'
p4195
I11
sS'uis'
p4196
I297
sS'yse'
p4197
I1034
sS'tss'
p4198
I2
sS'rbo'
p4199
I14
sS'rbl'
p4200
I51
sS'rbi'
p4201
I88
sS'uny'
p4202
I5
sS'yss'
p4203
I5
sS'jay'
p4204
I1
sS'rbe'
p4205
I148
sS'ly'
p4206
I4
sS'ysw'
p4207
I1
sS'rba'
p4208
I54
sS'yst'
p4209
I216
sS'wki'
p4210
I1
sS'va'
p4211
I1
sS'avy'
p4212
I101
sS'vi'
p4213
I11
sS'wke'
p4214
I1
sS'rpn'
p4215
I4
sS'ay'
p4216
I27
sS'avo'
p4217
I306
sS'avi'
p4218
I797
sS'piq'
p4219
I14
sS'ave'
p4220
I6613
sS'wks'
p4221
I1
sS'ava'
p4222
I114
sS'wkw'
p4223
I34
sS'yfe'
p4224
I2
sS'ilv'
p4225
I49
sS'pis'
p4226
I69
sS'fkl'
p4227
I1
sS'ilw'
p4228
I35
sS'mye'
p4229
I1
sS'ilt'
p4230
I114
sS'piu'
p4231
I50
sS'ilu'
p4232
I21
sS'gui'
p4233
I346
sS'noe'
p4234
I8
sS'eph'
p4235
I166
sS'une'
p4236
I449
sS'phi'
p4237
I119
sS'pho'
p4238
I42
sS'unf'
p4239
I149
sS'phl'
p4240
I7
sS'pha'
p4241
I80
sS'fol'
p4242
I716
sS'ios'
p4243
I103
sS'ior'
p4244
I104
sS'phe'
p4245
I113
sS'ion'
p4246
I8581
sS'phy'
p4247
I99
sS'iol'
p4248
I113
sS'coh'
p4249
I9
sS'iog'
p4250
I14
sS'phr'
p4251
I34
sS'iod'
p4252
I82
sS'ioc'
p4253
I5
sS'phu'
p4254
I17
sS'ofa'
p4255
I87
sS'off'
p4256
I1126
sS'ofe'
p4257
I127
sS'i'
p4258
I26085
sS'unl'
p4259
I184
sS'ofi'
p4260
I24
sS'ofo'
p4261
I34
sS'sbu'
p4262
I42
sS'unm'
p4263
I35
sS'ugi'
p4264
I7
sS'ofs'
p4265
I26
sS'wye'
p4266
I183
sS'coo'
p4267
I125
sS'oft'
p4268
I391
sS'oan'
p4269
I78
sS'kki'
p4270
I2
sS'ily'
p4271
I841
sS'xed'
p4272
I167
sS'aes'
p4273
I1
sS'xec'
p4274
I44
sS'mfi'
p4275
I6
sS'xen'
p4276
I9
sS'tcr'
p4277
I11
sS'ksh'
p4278
I40
sS'mfo'
p4279
I177
sS'xet'
p4280
I4
sS'tco'
p4281
I27
sS'mfu'
p4282
I7
sS'xer'
p4283
I106
sS'xes'
p4284
I28
sS'ahm'
p4285
I18
sS'tca'
p4286
I11
sS'adv'
p4287
I458
sS'web'
p4288
I7
sS'wea'
p4289
I452
sS'adu'
p4290
I35
sS'adr'
p4291
I5
sS'ads'
p4292
I111
sS'wee'
p4293
I952
sS'wed'
p4294
I767
sS'wei'
p4295
I51
sS'sky'
p4296
I99
sS'wen'
p4297
I1034
sS'gme'
p4298
I83
sS'ady'
p4299
I1665
sS'ske'
p4300
I844
sS'wer'
p4301
I3886
sS'add'
p4302
I620
sS'ade'
p4303
I1455
sS'llb'
p4304
I1
sS'wev'
p4305
I296
sS'wet'
p4306
I60
sS'adn'
p4307
I61
sS'ado'
p4308
I209
sS'adl'
p4309
I125
sS'adm'
p4310
I279
sS'adj'
p4311
I20
sS'adh'
p4312
I12
sS'adi'
p4313
I585
sS'otp'
p4314
I2
sS'psa'
p4315
I12
sS'rnw'
p4316
I2
sS'fyi'
p4317
I38
sS'nvy'
p4318
I11
sS'nve'
p4319
I438
sS'nva'
p4320
I80
sS'nvo'
p4321
I64
sS'igm'
p4322
I12
sS'nvi'
p4323
I263
sS'rff'
p4324
I1
sS'mho'
p4325
I10
sS'efl'
p4326
I161
sS'aix'
p4327
I1
sS'yor'
p4328
I42
sS'axa'
p4329
I1
sS'nja'
p4330
I2
sS'nje'
p4331
I31
sS'swu'
p4332
I8
sS'njo'
p4333
I109
sS'oyl'
p4334
I1
sS'nju'
p4335
I110
sS'aer'
p4336
I3
sS'esw'
p4337
I1
sS'esu'
p4338
I325
sS'est'
p4339
I4903
sS'ess'
p4340
I6575
sS'esr'
p4341
I4
sS'esq'
p4342
I29
sS'esp'
p4343
I757
sS'llf'
p4344
I1
sS'esy'
p4345
I14
sS'tma'
p4346
I80
sS'ese'
p4347
I1892
sS'esd'
p4348
I51
sS'esc'
p4349
I613
sS'tme'
p4350
I182
sS'esa'
p4351
I39
sS'eso'
p4352
I385
sS'esn'
p4353
I46
sS'esm'
p4354
I15
sS'esl'
p4355
I1
sS'esk'
p4356
I23
sS'esi'
p4357
I769
sS'esh'
p4358
I327
sS'uml'
p4359
I1
sS'dcl'
p4360
I4
sS'beu'
p4361
I1
sS'dch'
p4362
I9
sS'dui'
p4363
I6
sS'dca'
p4364
I2
sS'amy'
p4365
I26
sS'ndi'
p4366
I1195
sS'ndh'
p4367
I2
sS'ndk'
p4368
I55
sS'ndm'
p4369
I6
sS'ndl'
p4370
I562
sS'ndo'
p4371
I1008
sS'ndn'
p4372
I103
sS'nda'
p4373
I277
sS'ndc'
p4374
I1
sS'duo'
p4375
I5
sS'nde'
p4376
I3620
sS'odf'
p4377
I249
sS'ndf'
p4378
I30
sS'ndy'
p4379
I140
sS'kri'
p4380
I1
sS'kro'
p4381
I1
sS'nds'
p4382
I1314
sS'ndr'
p4383
I214
sS'ndu'
p4384
I377
sS'ndt'
p4385
I7
sS'ndw'
p4386
I31
sS'owm'
p4387
I2
sS'owl'
p4388
I411
sS'owo'
p4389
I55
sS'own'
p4390
I3383
sS'owi'
p4391
I393
sS'owh'
p4392
I23
sS'owk'
p4393
I1
sS'owe'
p4394
I1449
sS'owd'
p4395
I67
sS'owf'
p4396
I19
sS'owa'
p4397
I422
sS'owb'
p4398
I1
sS'owy'
p4399
I24
sS'owt'
p4400
I34
sS'ows'
p4401
I412
sS'yri'
p4402
I69
sS'vai'
p4403
I148
sS'van'
p4404
I772
sS'rcy'
p4405
I53
sS'val'
p4406
I1200
sS'vam'
p4407
I3
sS'rct'
p4408
I1
sS'yra'
p4409
I21
sS'aan'
p4410
I2
sS'yrd'
p4411
I11
sS'vag'
p4412
I90
sS'vad'
p4413
I16
sS'rcl'
p4414
I50
sS'rco'
p4415
I31
sS'rch'
p4416
I617
sS'rci'
p4417
I876
sS'lfl'
p4418
I1
sS'var'
p4419
I138
sS'vas'
p4420
I47
sS'vap'
p4421
I16
sS'yrs'
p4422
I3
sS'rca'
p4423
I79
sS'vat'
p4424
I334
sS'vau'
p4425
I15
sS'buz'
p4426
I10
sS'eah'
p4427
I28
sS'eak'
p4428
I1139
sS'buy'
p4429
I20
sS'eam'
p4430
I385
sS'eal'
p4431
I1273
sS'ean'
p4432
I1574
sS'bur'
p4433
I446
sS'bus'
p4434
I366
sS'eac'
p4435
I899
sS'eab'
p4436
I76
sS'ead'
p4437
I2818
sS'eag'
p4438
I143
sS'eaf'
p4439
I55
sS'buk'
p4440
I8
sS'buh'
p4441
I1
sS'bui'
p4442
I64
sS'bun'
p4443
I38
sS'buo'
p4444
I8
sS'bul'
p4445
I46
sS'bum'
p4446
I11
sS'bub'
p4447
I10
sS'jai'
p4448
I5
sS'eas'
p4449
I2216
sS'ear'
p4450
I6729
sS'eau'
p4451
I246
sS'eat'
p4452
I3230
sS'bud'
p4453
I15
sS'eav'
p4454
I1022
sS'lvu'
p4455
I1
sS'dma'
p4456
I9
sS'xac'
p4457
I173
sS'lso'
p4458
I321
sS'dme'
p4459
I2
sS'ouz'
p4460
I1
sS'dmi'
p4461
I271
sS'j'
p4462
I13
sS'ilf'
p4463
I10
sS'dmo'
p4464
I5
sS'lve'
p4465
I514
sS'lva'
p4466
I7
sS'lvi'
p4467
I13
sS'pik'
p4468
I7
sS'pil'
p4469
I235
sS'iny'
p4470
I65
sS'pin'
p4471
I848
sS'pio'
p4472
I26
sS'int'
p4473
I4777
sS'inu'
p4474
I683
sS'mys'
p4475
I1173
sS'pic'
p4476
I392
sS'pid'
p4477
I129
sS'pie'
p4478
I295
sS'inr'
p4479
I2
sS'ins'
p4480
I1849
sS'inl'
p4481
I380
sS'inm'
p4482
I47
sS'inn'
p4483
I661
sS'ino'
p4484
I48
sS'inh'
p4485
I69
sS'ini'
p4486
I833
sS'inj'
p4487
I76
sS'ink'
p4488
I1205
sS'ind'
p4489
I4236
sS'ine'
p4490
I3639
sS'inf'
p4491
I789
sS'ing'
p4492
I23716
sS'pit'
p4493
I376
sS'ina'
p4494
I749
sS'inb'
p4495
I13
sS'inc'
p4496
I1264
sS'oaf'
p4497
I2
sS'oad'
p4498
I346
sS'oac'
p4499
I281
sS'ild'
p4500
I764
sS'oam'
p4501
I20
sS'oal'
p4502
I19
sS'oak'
p4503
I109
sS'oah'
p4504
I1
sS'oav'
p4505
I1
sS'oat'
p4506
I259
sS'oas'
p4507
I59
sS'oar'
p4508
I125
sS'oap'
p4509
I2
sS'hnu'
p4510
I3
sS'nra'
p4511
I9
sS'oax'
p4512
I9
sS'ubt'
p4513
I461
sS'ubu'
p4514
I10
sS'rqu'
p4515
I10
sS'ubr'
p4516
I10
sS'ubs'
p4517
I103
sS'yba'
p4518
I1
sS'uby'
p4519
I3
sS'sbe'
p4520
I9
sS'ubd'
p4521
I30
sS'ube'
p4522
I88
sS'ubb'
p4523
I86
sS'uos'
p4524
I2
sS'ubl'
p4525
I422
sS'ubm'
p4526
I56
sS'ubo'
p4527
I7
sS'ubi'
p4528
I7
sS'ubj'
p4529
I318
sS'eoc'
p4530
I6
sS'hne'
p4531
I44
sS'eof'
p4532
I5
sS'eod'
p4533
I3
sS'hni'
p4534
I7
sS'eon'
p4535
I60
sS'oel'
p4536
I1
sS'eol'
p4537
I9
sS'eor'
p4538
I126
sS'hns'
p4539
I1
sS'eop'
p4540
I361
sS'gew'
p4541
I2
sS'eov'
p4542
I14
sS'eou'
p4543
I87
sS'eot'
p4544
I1
s.