(dp0
S'\xa9he'
p1
I13
sS'scl'
p2
I32
sS'ne\xc2'
p3
I1
sS'all'
p4
I1983
sS'\xa0\xc3\x87'
p5
I20
sS'loe'
p6
I2
sS'ab\xc3'
p7
I37
sS'\xabtr'
p8
I1
sS'su\xc3'
p9
I19
sS'lee'
p10
I1
sS'\xa2g\xc3'
p11
I14
sS'nwi'
p12
I3
sS'alk'
p13
I2
sS'\xa2cl'
p14
I30
sS'auc'
p15
I554
sS'aub'
p16
I49
sS'\xa8ne'
p17
I209
sS'aud'
p18
I492
sS'aug'
p19
I188
sS'auf'
p20
I127
sS'aui'
p21
I1
sS'\xa2ce'
p22
I72
sS'auj'
p23
I102
sS'aum'
p24
I28
sS'aul'
p25
I347
sS'aun'
p26
I134
sS'auq'
p27
I47
sS'aup'
p28
I122
sS'aus'
p29
I947
sS'aur'
p30
I821
sS'aut'
p31
I2968
sS'\xb4le'
p32
I238
sS'auv'
p33
I423
sS'xto'
p34
I1
sS'aux'
p35
I2209
sS'\xb4li'
p36
I3
sS'ald'
p37
I3
sS'\xa2cr'
p38
I3
sS'foc'
p39
I2
sS'\xc2\xa0n'
p40
I62
sS'alb'
p41
I92
sS'\xafss'
p42
I1
sS'gl\xc3'
p43
I61
sS'nry'
p44
I1
sS'\xafst'
p45
I5
sS'tt\xc3'
p46
I100
sS'\xafsm'
p47
I4
sS'dr\xc3'
p48
I136
sS'\xafse'
p49
I6
sS'aju'
p50
I3
sS'upo'
p51
I56
sS'upl'
p52
I127
sS'uph'
p53
I19
sS'upi'
p54
I143
sS'upe'
p55
I1062
sS'cma'
p56
I1
sS'upa'
p57
I208
sS'ni\xc3'
p58
I335
sS'upv'
p59
I1
sS'upt'
p60
I21
sS'upu'
p61
I12
sS'amw'
p62
I2
sS'ups'
p63
I140
sS'upp'
p64
I149
sS'au\xc2'
p65
I3
sS'olk'
p66
I3
sS'cce'
p67
I128
sS'mno'
p68
I11
sS'ece'
p69
I72
sS'\xb4l\xc3'
p70
I4
sS'alv'
p71
I23
sS'ecd'
p72
I4
sS'xt\xc3'
p73
I48
sS'orz'
p74
I30
sS'lbu'
p75
I74
sS'air'
p76
I2415
sS'ptu'
p77
I19
sS'nen'
p78
I174
sS'nel'
p79
I171
sS'nem'
p80
I785
sS'eca'
p81
I8
sS'kuy'
p82
I1
sS'nei'
p83
I75
sS'nef'
p84
I7
sS'ned'
p85
I454
sS'o\xc3\xae'
p86
I59
sS'neb'
p87
I2
sS'nec'
p88
I6
sS'nea'
p89
I285
sS'orv'
p90
I26
sS'gna'
p91
I533
sS'nez'
p92
I377
sS'nex'
p93
I27
sS'ney'
p94
I3
sS'nev'
p95
I72
sS'new'
p96
I21
sS'net'
p97
I311
sS'neu'
p98
I459
sS'ner'
p99
I1072
sS'nes'
p100
I1320
sS'nep'
p101
I11
sS'neq'
p102
I11
sS'med'
p103
I39
sS'mea'
p104
I17
sS'xfo'
p105
I1
sS'mem'
p106
I57
sS'rla'
p107
I279
sS'men'
p108
I6511
sS'mei'
p109
I122
sS'up\xc3'
p110
I253
sS'meu'
p111
I360
sS'met'
p112
I683
sS'mes'
p113
I2401
sS'mer'
p114
I1224
sS'\xa2ch'
p115
I434
sS'mey'
p116
I2
sS'\xc3\xa0\xc2'
p117
I8
sS'oed'
p118
I1
sS'mez'
p119
I30
sS'gli'
p120
I138
sS'glo'
p121
I164
sS'aks'
p122
I3
sS'gla'
p123
I301
sS'dru'
p124
I17
sS'gle'
p125
I161
sS'sla'
p126
I9
sS'dri'
p127
I74
sS'gly'
p128
I3
sS'aki'
p129
I1
sS'ect'
p130
I784
sS'sjo'
p131
I2
sS'dro'
p132
I366
sS'dra'
p133
I452
sS'ecs'
p134
I29
sS'aka'
p135
I3
sS'dre'
p136
I1668
sS'glu'
p137
I2
sS'ake'
p138
I5
sS'ecr'
p139
I61
sS'\xa9bi'
p140
I27
sS'v\xc3\xa2'
p141
I17
sS'en\xc3'
p142
I376
sS'dyn'
p143
I9
sS'ho\xc3'
p144
I1
sS'bry'
p145
I1
sS'v\xc3\xa8'
p146
I87
sS'v\xc3\xa9'
p147
I815
sS'bru'
p148
I539
sS'lmo'
p149
I8
sS'v\xc3\xae'
p150
I27
sS'bro'
p151
I159
sS'rlu'
p152
I5
sS'v\xc3\xb4'
p153
I13
sS'bri'
p154
I331
sS'lma'
p155
I37
sS'bre'
p156
I1094
sS'bra'
p157
I826
sS'e\xc3\xa7'
p158
I71
sS'yg\xc3'
p159
I20
sS'e\xc3\xa2'
p160
I22
sS'ryo'
p161
I1
sS'mwa'
p162
I2
sS'lme'
p163
I86
sS'vol'
p164
I480
sS'e\xc3\xb4'
p165
I2
sS'\xc3\xabl'
p166
I6
sS'ua\xc3'
p167
I1
sS'lwa'
p168
I2
sS'e\xc3\xbb'
p169
I204
sS'von'
p170
I173
sS'zid'
p171
I7
sS'cci'
p172
I40
sS'dex'
p173
I2
sS'\xc3\xaet'
p174
I516
sS'xta'
p175
I28
sS'ltr'
p176
I8
sS'\xa9c\xc3'
p177
I31
sS'\xa8tr'
p178
I412
sS'voi'
p179
I2457
sS'\xc3\xaec'
p180
I53
sS'\xc3\xaen'
p181
I360
sS'\xc3\xael'
p182
I184
sS'\xc3\xaem'
p183
I61
sS'ert'
p184
I1053
sS'rin'
p185
I613
sS'erv'
p186
I1507
sS'ma'
p187
I430
sS'erq'
p188
I2
sS'err'
p189
I1634
sS'ers'
p190
I2275
sS'mm'
p191
I1
sS'mi'
p192
I6
sS'ery'
p193
I1
sS'la\xc2'
p194
I24
sS'la\xc3'
p195
I70
sS'erd'
p196
I346
sS'ere'
p197
I182
sS'erf'
p198
I45
sS'erg'
p199
I253
sS'tna'
p200
I1
sS'era'
p201
I1307
sS'erb'
p202
I112
sS'erc'
p203
I796
sS'erl'
p204
I88
sS'erm'
p205
I677
sS'ern'
p206
I608
sS'ero'
p207
I253
sS'erh'
p208
I4
sS'eri'
p209
I619
sS'erj'
p210
I2
sS'rik'
p211
I1
sS'uay'
p212
I8
sS'\xc3\xabs'
p213
I11
sS'dn\xc3'
p214
I1
sS'ygn'
p215
I7
sS'uas'
p216
I26
sS'uar'
p217
I353
sS'uau'
p218
I5
sS'uat'
p219
I554
sS'ygi'
p220
I5
sS'uav'
p221
I7
sS'uai'
p222
I684
sS'uak'
p223
I1
sS'\xaami'
p224
I8
sS'ual'
p225
I50
sS'uan'
p226
I1221
sS'uab'
p227
I18
sS'uad'
p228
I27
sS'uag'
p229
I49
sS'\xaame'
p230
I1173
sS'ena'
p231
I2054
sS'hod'
p232
I46
sS'enc'
p233
I2352
sS'end'
p234
I4009
sS'ene'
p235
I321
sS'enf'
p236
I1077
sS'eng'
p237
I219
sS'enh'
p238
I11
sS'eni'
p239
I1017
sS'hol'
p240
I40
sS'hom'
p241
I829
sS'enl'
p242
I93
sS'enn'
p243
I509
sS'eno'
p244
I184
sS'hov'
p245
I2
sS'enq'
p246
I5
sS'enr'
p247
I211
sS'ens'
p248
I1395
sS'hor'
p249
I359
sS'enu'
p250
I389
sS'env'
p251
I478
sS'hoq'
p252
I35
sS'eny'
p253
I1
sS'enz'
p254
I2
sS'br\xc3'
p255
I169
sS'lal'
p256
I34
sS'lam'
p257
I393
sS'lan'
p258
I2644
sS'lao'
p259
I1
sS'pig'
p260
I25
sS'lai'
p261
I3993
sS'ovu'
p262
I2
sS'lad'
p263
I241
sS'lae'
p264
I3
sS'laf'
p265
I90
sS'lag'
p266
I325
sS'rcu'
p267
I79
sS'lab'
p268
I116
sS'lac'
p269
I540
sS'\xc3\x94l'
p270
I1
sS'ova'
p271
I11
sS'fat'
p272
I115
sS'laz'
p273
I6
sS'er\xc3'
p274
I228
sS'lat'
p275
I614
sS'lau'
p276
I61
sS'lav'
p277
I141
sS'mpi'
p278
I121
sS'lap'
p279
I29
sS'laq'
p280
I205
sS'lar'
p281
I836
sS'las'
p282
I278
sS'\xa9ci'
p283
I469
sS'\xa9ch'
p284
I544
sS'\xa9co'
p285
I485
sS'\xa9cl'
p286
I455
sS'\xa2ss'
p287
I3
sS'\xa9ca'
p288
I188
sS'\xa9ce'
p289
I131
sS'mpu'
p290
I52
sS'\xa9cr'
p291
I411
sS'\xa9cu'
p292
I115
sS'fao'
p293
I1
sS'zan'
p294
I2
sS'e\xc2\xbb'
p295
I13
sS'\xc2\xabs'
p296
I1
sS'oer'
p297
I1
sS'zen'
p298
I4
sS'zel'
p299
I7
sS'zem'
p300
I1
sS'zes'
p301
I5
sS'y\xc3\xa9'
p302
I271
sS'y\xc3\xa8'
p303
I12
sS'zet'
p304
I1
sS'zeu'
p305
I1
sS'ao\xc3'
p306
I5
sS'y\xc3\xa2'
p307
I4
sS'sm\xc3'
p308
I6
sS'ima'
p309
I636
sS'fis'
p310
I93
sS'imb'
p311
I37
sS'ime'
p312
I677
sS'cli'
p313
I276
sS'fit'
p314
I336
sS'uot'
p315
I16
sS'imi'
p316
I132
sS'cle'
p317
I490
sS'fix'
p318
I117
sS'imm'
p319
I268
sS'cla'
p320
I952
sS'imo'
p321
I51
sS'fag'
p322
I8
sS'fib'
p323
I6
sS'imp'
p324
I553
sS'ims'
p325
I4
sS'fia'
p326
I140
sS'imu'
p327
I25
sS'cly'
p328
I5
sS'fid'
p329
I41
sS'fie'
p330
I101
sS'clu'
p331
I72
sS'uoi'
p332
I303
sS'fin'
p333
I1125
sS'uon'
p334
I7
sS'fil'
p335
I790
sS'fim'
p336
I1
sS'at\xc3'
p337
I54
sS'lox'
p338
I1
sS'zac'
p339
I2
sS'is\xc3'
p340
I330
sS'is\xc2'
p341
I5
sS'\xabal'
p342
I1
sS'me\xc3'
p343
I2
sS'me\xc2'
p344
I9
sS'\x89le'
p345
I1
sS'l'
p346
I7378
sS'ony'
p347
I1
sS'nt\xc3'
p348
I898
sS'nt\xc2'
p349
I13
sS'rcs'
p350
I7
sS'im\xc3'
p351
I144
sS'nz\xc3'
p352
I2
sS'cl\xc3'
p353
I95
sS'fi\xc3'
p354
I123
sS'\xa0\xc3\xa0'
p355
I8
sS'ui\xc2'
p356
I7
sS'hyo'
p357
I1
sS'yol'
p358
I10
sS'osm'
p359
I2
sS'gom'
p360
I9
sS'gol'
p361
I120
sS'gon'
p362
I140
sS'goi'
p363
I35
sS'goh'
p364
I1
sS'\xa7ue'
p365
I16
sS'god'
p366
I15
sS'gog'
p367
I19
sS'syd'
p368
I1
sS'goa'
p369
I1
sS'\xa8qu'
p370
I30
sS'goc'
p371
I16
sS'gob'
p372
I19
sS'\xa7us'
p373
I44
sS'\xa7ur'
p374
I7
sS'zap'
p375
I4
sS'smi'
p376
I9
sS'kir'
p377
I4
sS'gou'
p378
I502
sS'got'
p379
I80
sS'sme'
p380
I68
sS'gov'
p381
I3
sS'ri'
p382
I5
sS'gos'
p383
I21
sS'gor'
p384
I110
sS'a\xc3\xa8'
p385
I1
sS'ntp'
p386
I5
sS'nts'
p387
I1630
sS'ntr'
p388
I2411
sS'ntu'
p389
I162
sS'a\xc3\xae'
p390
I694
sS'nti'
p391
I1749
sS'nth'
p392
I52
sS'enw'
p393
I3
sS'\xc3\x88c'
p394
I1
sS'ntm'
p395
I20
sS'ntl'
p396
I1
sS'nto'
p397
I153
sS'nta'
p398
I1634
sS'kit'
p399
I1
sS'nte'
p400
I4560
sS'ate'
p401
I712
sS'an\xc2'
p402
I1
sS'xur'
p403
I3
sS'ata'
p404
I252
sS'iss'
p405
I3489
sS'upr'
p406
I67
sS'isq'
p407
I224
sS'isp'
p408
I277
sS'etc'
p409
I18
sS'ath'
p410
I42
sS'ist'
p411
I1003
sS'isj'
p412
I2
sS'att'
p413
I1339
sS'atu'
p414
I343
sS'atr'
p415
I595
sS'ats'
p416
I133
sS'ism'
p417
I47
sS'sa\xc2'
p418
I2
sS'isc'
p419
I118
sS'isb'
p420
I1
sS'isa'
p421
I1554
sS'isg'
p422
I1
sS'isf'
p423
I62
sS'ise'
p424
I3121
sS'aty'
p425
I1
sS'nhe'
p426
I237
sS'g\xc3\xa2'
p427
I53
sS'nha'
p428
I13
sS'xai'
p429
I8
sS'g\xc3\xa9'
p430
I940
sS'g\xc3\xa8'
p431
I215
sS'nho'
p432
I18
sS'\xc3\x80'
p433
I113
sS'pir'
p434
I203
sS'g\xc3\xae'
p435
I4
sS'nhu'
p436
I2
sS'tek'
p437
I1
sS'nhy'
p438
I1
sS'\xc3\x94'
p439
I15
sS'\x86gr'
p440
I2
sS'xib'
p441
I1
sS'\x88ge'
p442
I1
sS'xid'
p443
I1
sS'ra\xc3'
p444
I336
sS'xig'
p445
I38
sS'tor'
p446
I386
sS'tos'
p447
I4
sS'top'
p448
I7
sS'\xc3\xa0'
p449
I8153
sS'equ'
p450
I115
sS'xim'
p451
I10
sS'tot'
p452
I59
sS'tou'
p453
I5148
sS'xiq'
p454
I7
sS'gut'
p455
I42
sS'toi'
p456
I931
sS'ton'
p457
I652
sS'kie'
p458
I1
sS'tol'
p459
I38
sS'tom'
p460
I511
sS'tob'
p461
I13
sS'toc'
p462
I23
sS'ai\xc2'
p463
I1
sS'tof'
p464
I71
sS'tog'
p465
I10
sS'\xc3\xb4'
p466
I37
sS'\xafnc'
p467
I2
sS'gym'
p468
I6
sS'\xa9or'
p469
I10
sS'\xafne'
p470
I2
sS'osc'
p471
I73
sS'rfs'
p472
I12
sS'gyr'
p473
I1
sS'gyp'
p474
I13
sS'lp\xc3'
p475
I4
sS'e\xc2\xa0'
p476
I33
sS'ruz'
p477
I1
sS'sod'
p478
I17
sS'\xa0ju'
p479
I2
sS'x\xc3\xa8'
p480
I4
sS'x\xc3\xa9'
p481
I79
sS'pt'
p482
I1
sS'nza'
p483
I16
sS'\xc2\xa0\xc2'
p484
I295
sS'uka'
p485
I2
sS'nze'
p486
I198
sS'\xa0je'
p487
I42
sS'nzi'
p488
I3
sS'thu'
p489
I3
sS'bs\xc3'
p490
I3
sS'raf'
p491
I44
sS'rag'
p492
I463
sS'oqu'
p493
I433
sS'xi\xc3'
p494
I73
sS'rab'
p495
I276
sS'rac'
p496
I476
sS'cyr'
p497
I5
sS'ran'
p498
I3236
sS'rao'
p499
I50
sS'ral'
p500
I351
sS'ram'
p501
I289
sS'raj'
p502
I9
sS'rak'
p503
I6
sS'rah'
p504
I84
sS'rai'
p505
I4926
sS'rav'
p506
I937
sS'raw'
p507
I1
sS'rat'
p508
I596
sS'rau'
p509
I54
sS'rar'
p510
I89
sS'ras'
p511
I1025
sS'rap'
p512
I781
sS'raq'
p513
I82
sS'lbi'
p514
I3
sS'\x89me'
p515
I1
sS'raz'
p516
I1
sS'nba'
p517
I30
sS'rax'
p518
I2
sS'ray'
p519
I409
sS'ypr'
p520
I8
sS'yps'
p521
I1
sS'\xa9bl'
p522
I26
sS'ypt'
p523
I12
sS'\xa9bo'
p524
I72
sS'\xa9ba'
p525
I162
sS'cyt'
p526
I2
sS'epl'
p527
I24
sS'hul'
p528
I2
sS'ypa'
p529
I3
sS'kes'
p530
I1
sS'ype'
p531
I36
sS'xi'
p532
I7
sS'\xa9br'
p533
I93
sS'tew'
p534
I13
sS'\xa9bu'
p535
I39
sS'tyl'
p536
I4
sS'\xc2\xa0p'
p537
I49
sS'tyn'
p538
I2
sS'\xc2\xa0r'
p539
I17
sS'mba'
p540
I475
sS'\xc2\xa0t'
p541
I91
sS'suf'
p542
I161
sS'bst'
p543
I75
sS'bsu'
p544
I3
sS'uem'
p545
I250
sS'\xc2\xa0z'
p546
I1
sS'sue'
p547
I77
sS'myo'
p548
I1
sS'gto'
p549
I5
sS'ull'
p550
I48
sS'\xc2\xa0c'
p551
I86
sS'bso'
p552
I85
sS'\xc2\xa0e'
p553
I105
sS'\xc2\xa0d'
p554
I85
sS'\xc2\xa0g'
p555
I9
sS'\xc2\xa0f'
p556
I16
sS'\xc2\xa0i'
p557
I31
sS'bse'
p558
I187
sS'\xc2\xa0j'
p559
I59
sS'\xc2\xa0m'
p560
I106
sS'\xc2\xa0l'
p561
I99
sS'tyr'
p562
I22
sS'bsc'
p563
I79
sS'doi'
p564
I204
sS'don'
p565
I2539
sS'doo'
p566
I1
sS'dol'
p567
I27
sS'dom'
p568
I78
sS'doc'
p569
I10
sS'lpt'
p570
I12
sS'm'
p571
I758
sS'dog'
p572
I8
sS'dod'
p573
I15
sS'dox'
p574
I2
sS'ogn'
p575
I203
sS'lpi'
p576
I11
sS'lph'
p577
I8
sS'dor'
p578
I373
sS'ogi'
p579
I46
sS'lpe'
p580
I38
sS'sog'
p581
I75
sS'dow'
p582
I2
sS'dot'
p583
I5
sS'dou'
p584
I802
sS'\xa7a\xc2'
p585
I1
sS'\xa0bo'
p586
I5
sS'pt\xc3'
p587
I79
sS'ude'
p588
I563
sS'aot'
p589
I1
sS'al\xc3'
p590
I107
sS'\xa8s\xc2'
p591
I1
sS'rst'
p592
I4
sS'sc\xc3'
p593
I54
sS'mu\xc3'
p594
I22
sS'cav'
p595
I60
sS'ir\xc2'
p596
I2
sS'ir\xc3'
p597
I217
sS'oci'
p598
I107
sS'och'
p599
I972
sS'ock'
p600
I13
sS'hry'
p601
I6
sS'ocl'
p602
I2
sS'oco'
p603
I47
sS'suv'
p604
I1
sS'oca'
p605
I73
sS'rsp'
p606
I6
sS'occ'
p607
I254
sS'yen'
p608
I109
sS'oce'
p609
I140
sS'xod'
p610
I1
sS'udo'
p611
I14
sS'ocy'
p612
I2
sS'hro'
p613
I25
sS'sut'
p614
I10
sS'hri'
p615
I14
sS'cau'
p616
I344
sS'ic\xc2'
p617
I1
sS'hre'
p618
I1
sS'\xa0il'
p619
I29
sS'ocs'
p620
I36
sS'ocr'
p621
I28
sS'hra'
p622
I81
sS'oct'
p623
I41
sS'abu'
p624
I24
sS'\xa9pa'
p625
I629
sS'il\xc2'
p626
I3
sS'il\xc3'
p627
I287
sS'\xa9pe'
p628
I121
sS'\xa9ph'
p629
I20
sS'de'
p630
I20576
sS'\xa9po'
p631
I927
sS'\xa9pl'
p632
I116
sS'\xa9pr'
p633
I118
sS'co\xc3'
p634
I34
sS'un\xc3'
p635
I47
sS'\xa9pu'
p636
I107
sS'y\xc2\xa0'
p637
I1
sS'du'
p638
I3683
sS'om\xc3'
p639
I140
sS'lds'
p640
I7
sS'bat'
p641
I511
sS'bau'
p642
I217
sS'bar'
p643
I520
sS'bas'
p644
I414
sS'bap'
p645
I13
sS'emb'
p646
I1190
sS'emm'
p647
I875
sS'emo'
p648
I941
sS'emn'
p649
I1
sS'emi'
p650
I890
sS'bay'
p651
I7
sS'baf'
p652
I5
sS'bag'
p653
I31
sS'bad'
p654
I29
sS'bab'
p655
I42
sS'emp'
p656
I1479
sS'ban'
p657
I563
sS'bal'
p658
I445
sS'bam'
p659
I8
sS'bak'
p660
I1
sS'bah'
p661
I15
sS'bai'
p662
I458
sS'nuy'
p663
I36
sS'oc\xc3'
p664
I219
sS'ldt'
p665
I3
sS'nur'
p666
I18
sS'nus'
p667
I169
sS'nup'
p668
I1
sS'nuq'
p669
I13
sS'nuo'
p670
I6
sS'nul'
p671
I44
sS'num'
p672
I37
sS'\xa9og'
p673
I9
sS'nui'
p674
I376
sS'nuf'
p675
I8
sS'nud'
p676
I16
sS'nue'
p677
I369
sS'aan'
p678
I3
sS'nuc'
p679
I1
sS'hr\xc3'
p680
I3
sS'nua'
p681
I239
sS'mut'
p682
I9
sS'ou\xc2'
p683
I15
sS'mus'
p684
I209
sS'mur'
p685
I706
sS'\xaete'
p686
I49
sS'irr'
p687
I62
sS'irs'
p688
I368
sS'iru'
p689
I5
sS'\xc3\x89b'
p690
I1
sS'mue'
p691
I107
sS'iri'
p692
I125
sS'mug'
p693
I7
sS'muf'
p694
I10
sS'mua'
p695
I31
sS'irm'
p696
I47
sS'muc'
p697
I3
sS'iro'
p698
I193
sS'mum'
p699
I12
sS'ira'
p700
I717
sS'irb'
p701
I1
sS'mun'
p702
I116
sS'ire'
p703
I3685
sS'irg'
p704
I151
sS'omb'
p705
I1128
sS'oma'
p706
I113
sS'ome'
p707
I545
sS'ufa'
p708
I7
sS'ask'
p709
I2
sS'omi'
p710
I216
sS'cah'
p711
I12
sS'omo'
p712
I40
sS'omn'
p713
I66
sS'omm'
p714
I4130
sS'oms'
p715
I16
sS'omp'
p716
I1555
sS'omu'
p717
I1
sS'bes'
p718
I446
sS's\xc3\xa9'
p719
I1964
sS's\xc3\xa8'
p720
I214
sS'coq'
p721
I158
sS'\xa9p\xc3'
p722
I326
sS'cos'
p723
I49
sS'cor'
p724
I1586
sS'cou'
p725
I3725
sS'han'
p726
I1010
sS'ila'
p727
I177
sS'iln'
p728
I5
sS'ilo'
p729
I77
sS'ill'
p730
I5037
sS'ilm'
p731
I1
sS'\xb4ve'
p732
I15
sS'ilk'
p733
I1
sS'ilh'
p734
I8
sS'ili'
p735
I695
sS'coa'
p736
I4
sS'una'
p737
I31
sS'coc'
p738
I97
sS'cob'
p739
I7
sS'und'
p740
I39
sS'ils'
p741
I1515
sS'cog'
p742
I19
sS'ung'
p743
I6
sS'coi'
p744
I241
sS'uni'
p745
I257
sS'cok'
p746
I9
sS'unk'
p747
I2
sS'com'
p748
I4368
sS'col'
p749
I589
sS'coo'
p750
I21
sS'con'
p751
I4175
sS'pre'
p752
I1872
sS'ela'
p753
I509
sS'yr\xc3'
p754
I3
sS'\xa9so'
p755
I144
sS'had'
p756
I7
sS'dh\xc3'
p757
I14
sS'anf'
p758
I11
sS'\xa9oc'
p759
I36
sS'\x8ele'
p760
I1
sS'\xabfa'
p761
I2
sS'eld'
p762
I14
sS'ggl'
p763
I7
sS'sao'
p764
I3
sS's\xc3\xa2'
p765
I36
sS'ana'
p766
I583
sS'cug'
p767
I5
sS'fra'
p768
I1062
sS'anb'
p769
I30
sS'fre'
p770
I189
sS'ggi'
p771
I3
sS'fri'
p772
I240
sS'sal'
p773
I746
sS'fro'
p774
I317
sS'haz'
p775
I2
sS'mex'
p776
I7
sS'anl'
p777
I67
sS'ely'
p778
I1
sS'fru'
p779
I64
sS'anm'
p780
I2
sS'\xc2\xa0h'
p781
I24
sS'joh'
p782
I2
sS'ann'
p783
I389
sS'rge'
p784
I994
sS'sob'
p785
I8
sS'mch'
p786
I1
sS'sag'
p787
I366
sS'saf'
p788
I1
sS'rgh'
p789
I1
sS'haq'
p790
I263
sS'xxi'
p791
I14
sS'ank'
p792
I1
sS'th\xc3'
p793
I139
sS'elp'
p794
I8
sS'pru'
p795
I95
sS'elq'
p796
I731
sS'aix'
p797
I33
sS'gnu'
p798
I9
sS'ait'
p799
I21926
sS'gny'
p800
I17
sS'anv'
p801
I41
sS'ais'
p802
I8240
sS'n'
p803
I2535
sS'aim'
p804
I490
sS'ail'
p805
I1393
sS'ain'
p806
I3897
sS'cui'
p807
I254
sS'gne'
p808
I842
sS'\xa8re'
p809
I3598
sS'aid'
p810
I174
sS'aig'
p811
I309
sS'gni'
p812
I159
sS'gno'
p813
I384
sS'aib'
p814
I51
sS'fr\xc3'
p815
I241
sS'ix'
p816
I8
sS'prr'
p817
I1
sS'\xa7ut'
p818
I101
sS'iv'
p819
I10
sS'ii'
p820
I11
sS'tzb'
p821
I3
sS'tze'
p822
I3
sS'il'
p823
I7617
sS'in'
p824
I7
sS'tzi'
p825
I8
sS'opp'
p826
I100
sS'dho'
p827
I1
sS'lqu'
p828
I732
sS'ops'
p829
I1
sS'any'
p830
I4
sS'\xa8ph'
p831
I2
sS'nik'
p832
I19
sS'nih'
p833
I2
sS'bie'
p834
I1476
sS'nin'
p835
I22
sS'nio'
p836
I75
sS'nil'
p837
I31
sS'nim'
p838
I264
sS'nib'
p839
I54
sS'nic'
p840
I81
sS'nia'
p841
I32
sS'nif'
p842
I102
sS'nig'
p843
I12
sS'nid'
p844
I15
sS'nie'
p845
I860
sS'kik'
p846
I1
sS'gn\xc3'
p847
I253
sS'nix'
p848
I4
sS'kin'
p849
I5
sS'kil'
p850
I53
sS'nir'
p851
I511
sS'nis'
p852
I824
sS'nip'
p853
I5
sS'niq'
p854
I207
sS'niv'
p855
I44
sS'nit'
p856
I279
sS'niu'
p857
I4
sS'thy'
p858
I4
sS'ept'
p859
I295
sS'min'
p860
I867
sS'ths'
p861
I3
sS'eps'
p862
I7
sS'epp'
p863
I2
sS'tho'
p864
I51
sS'epo'
p865
I111
sS'thm'
p866
I19
sS'thl'
p867
I1
sS'thi'
p868
I23
sS'epi'
p869
I5
sS'the'
p870
I105
sS'epe'
p871
I392
sS'tha'
p872
I14
sS'epa'
p873
I141
sS'vib'
p874
I14
sS'\xa2p\xc3'
p875
I1
sS'\xc3\xafv'
p876
I5
sS'yel'
p877
I2
sS'vic'
p878
I192
sS'ic\xc3'
p879
I5
sS'xv'
p880
I6
sS'\xaetr'
p881
I343
sS'en\xc2'
p882
I5
sS'mid'
p883
I265
sS'biv'
p884
I3
sS'yez'
p885
I150
sS'cae'
p886
I2
sS'um\xc3'
p887
I146
sS'um\xc2'
p888
I1
sS'\xaeta'
p889
I1
sS'\xa9le'
p890
I243
sS'yes'
p891
I5
sS'yer'
p892
I213
sS'yeu'
p893
I640
sS'yet'
p894
I4
sS'vig'
p895
I140
sS'hah'
p896
I19
sS'hai'
p897
I887
sS'elh'
p898
I4
sS'ol\xc3'
p899
I244
sS'hal'
p900
I294
sS'ham'
p901
I408
sS'ell'
p902
I8978
sS'hao'
p903
I4
sS'elb'
p904
I33
sS'elc'
p905
I11
sS'hab'
p906
I327
sS'\xc3\xa9d'
p907
I625
sS'elf'
p908
I2
sS'elg'
p909
I1
sS'haf'
p910
I6
sS'ele'
p911
I219
sS'elz'
p912
I1
sS'hay'
p913
I2
sS'\xbbme'
p914
I42
sS'chn'
p915
I4
sS'rnu'
p916
I26
sS's\xc3\xbb'
p917
I153
sS'hap'
p918
I277
sS'els'
p919
I175
sS'har'
p920
I612
sS'has'
p921
I204
sS'hat'
p922
I102
sS'hau'
p923
I793
sS'hav'
p924
I14
sS'elu'
p925
I190
sS'opt'
p926
I23
sS'opu'
p927
I16
sS'rni'
p928
I518
sS'lcu'
p929
I69
sS'rno'
p930
I50
sS'opr'
p931
I197
sS'hs\xc3'
p932
I1
sS'\xc3\xa9o'
p933
I112
sS'rna'
p934
I446
sS'ob\xc3'
p935
I38
sS'rne'
p936
I423
sS'vio'
p937
I271
sS'ope'
p938
I73
sS'\xc3\x89l'
p939
I8
sS'vil'
p940
I267
sS'lca'
p941
I53
sS'opl'
p942
I7
sS'lco'
p943
I31
sS'opo'
p944
I128
sS'oph'
p945
I111
sS'opi'
p946
I88
sS'lch'
p947
I11
sS'\xa9am'
p948
I2
sS'vir'
p949
I423
sS'\xa9an'
p950
I301
sS'\xa9ai'
p951
I10
sS'\xc3\xa9r'
p952
I2093
sS'\xa9ag'
p953
I1
sS'\xc3\xa9q'
p954
I193
sS'\xa9ac'
p955
I6
sS'eli'
p956
I234
sS'kra'
p957
I5
sS'viq'
p958
I1
sS'pl\xc3'
p959
I141
sS'ru\xc3'
p960
I6
sS'\xa9au'
p961
I4
sS'\xa9at'
p962
I36
sS'\xa9ap'
p963
I4
sS'\xa9as'
p964
I5
sS'seb'
p965
I1
sS'ola'
p966
I242
sS'olb'
p967
I1
sS'olc'
p968
I36
sS'old'
p969
I29
sS'ole'
p970
I824
sS'olf'
p971
I37
sS'zag'
p972
I3
sS'oli'
p973
I554
sS'ha\xc3'
p974
I60
sS'oll'
p975
I335
sS'uys'
p976
I1
sS'oln'
p977
I54
sS'olo'
p978
I416
sS'ols'
p979
I29
sS'olt'
p980
I48
sS'olu'
p981
I167
sS'olv'
p982
I2
sS'olw'
p983
I1
sS'oly'
p984
I26
sS'olz'
p985
I1
sS'\xa9ab'
p986
I34
sS'umu'
p987
I8
sS'fou'
p988
I489
sS'ici'
p989
I448
sS'ich'
p990
I366
sS'ico'
p991
I100
sS'foq'
p992
I39
sS'for'
p993
I1265
sS'fos'
p994
I18
sS'ica'
p995
I426
sS'foy'
p996
I16
sS'ice'
p997
I382
sS'ume'
p998
I415
sS'foe'
p999
I1
sS'umg'
p1000
I2
sS'\xa2pr'
p1001
I12
sS'uma'
p1002
I156
sS'\xc2\xa0v'
p1003
I95
sS'umb'
p1004
I15
sS'fol'
p1005
I68
sS'icr'
p1006
I6
sS'umo'
p1007
I47
sS'umn'
p1008
I4
sS'umi'
p1009
I262
sS'foi'
p1010
I668
sS'icu'
p1011
I156
sS'ict'
p1012
I97
sS'dne'
p1013
I1
sS'b\xc3\xae'
p1014
I26
sS'b\xc3\xa8'
p1015
I18
sS'b\xc3\xa9'
p1016
I427
sS'b\xc3\xaa'
p1017
I251
sS'chs'
p1018
I5
sS'hso'
p1019
I1
sS'b\xc3\xa2'
p1020
I160
sS'ple'
p1021
I834
sS'p\xc3\xb4'
p1022
I65
sS'pla'
p1023
I1311
sS'b\xc3\xbb'
p1024
I7
sS'plo'
p1025
I323
sS'\xc2\xabl'
p1026
I9
sS'epr'
p1027
I571
sS'pli'
p1028
I601
sS'zur'
p1029
I11
sS'uya'
p1030
I123
sS'obl'
p1031
I117
sS'eef'
p1032
I3
sS'obj'
p1033
I56
sS'zut'
p1034
I6
sS'obi'
p1035
I288
sS'rn\xc3'
p1036
I292
sS'd\xc2\xa0'
p1037
I2
sS'obe'
p1038
I219
sS'obb'
p1039
I1
sS'o'
p1040
I19
sS'oba'
p1041
I50
sS'z\xc2\xa0'
p1042
I1
sS'uev'
p1043
I1
sS'lc\xc3'
p1044
I17
sS'op\xc3'
p1045
I78
sS'awk'
p1046
I1
sS'obt'
p1047
I52
sS'obu'
p1048
I13
sS'obr'
p1049
I18
sS'obs'
p1050
I318
sS'pym'
p1051
I1
sS'mbl'
p1052
I766
sS'ppa'
p1053
I383
sS'mbo'
p1054
I77
sS'soe'
p1055
I84
sS'mbi'
p1056
I90
sS'ppe'
p1057
I458
sS'\xa8se'
p1058
I31
sS'soi'
p1059
I1148
sS'mbe'
p1060
I326
sS'ppi'
p1061
I8
sS'ahi'
p1062
I75
sS'som'
p1063
I439
sS'sol'
p1064
I712
sS'ahl'
p1065
I1
sS'son'
p1066
I4991
sS'pps'
p1067
I1
sS'ppr'
p1068
I394
sS'sos'
p1069
I7
sS'sor'
p1070
I503
sS'sou'
p1071
I2739
sS'sot'
p1072
I24
sS'ppu'
p1073
I56
sS'ahu'
p1074
I14
sS'soy'
p1075
I23
sS'mbu'
p1076
I18
sS'lgi'
p1077
I3
sS'mbr'
p1078
I949
sS'ti\xc3'
p1079
I387
sS'aso'
p1080
I7
sS'git'
p1081
I136
sS'gis'
p1082
I131
sS'gir'
p1083
I55
sS'giq'
p1084
I57
sS'gip'
p1085
I1
sS'wag'
p1086
I7
sS'wad'
p1087
I1
sS'nn\xc3'
p1088
I524
sS'eys'
p1089
I2
sS'sne'
p1090
I1
sS'gig'
p1091
I51
sS'gif'
p1092
I21
sS'gie'
p1093
I110
sS'gid'
p1094
I6
sS'pi'
p1095
I1
sS'gib'
p1096
I35
sS'way'
p1097
I5
sS'el\xc3'
p1098
I131
sS'gio'
p1099
I47
sS'gin'
p1100
I287
sS'gim'
p1101
I7
sS'gil'
p1102
I29
sS'was'
p1103
I3
sS'war'
p1104
I19
sS'cke'
p1105
I3
sS'\xc3\x89t'
p1106
I115
sS'kop'
p1107
I2
sS'olm'
p1108
I1
sS'\xb4na'
p1109
I1
sS'low'
p1110
I1
sS'azi'
p1111
I1
sS'\xa0l\xc3'
p1112
I2
sS'azo'
p1113
I48
sS'iqu'
p1114
I1835
sS'aza'
p1115
I26
sS'hu\xc3'
p1116
I28
sS'aze'
p1117
I8
sS'\xa0s\xc3'
p1118
I1
sS'azz'
p1119
I2
sS'\xa2no'
p1120
I1
sS'\xa2na'
p1121
I3
sS'azu'
p1122
I11
sS'\xa2ne'
p1123
I57
sS'mte'
p1124
I27
sS'nno'
p1125
I92
sS'\xaet\xc3'
p1126
I2
sS'nni'
p1127
I209
sS'utc'
p1128
I6
sS'nne'
p1129
I1958
sS'cop'
p1130
I22
sS'\xc2\xb0l'
p1131
I1
sS'nna'
p1132
I1156
sS'khi'
p1133
I1
sS'gi\xc3'
p1134
I5
sS'nny'
p1135
I1
sS'elv'
p1136
I3
sS'nnu'
p1137
I267
sS'nke'
p1138
I3
sS'pp\xc3'
p1139
I105
sS'ni'
p1140
I222
sS'so\xc3'
p1141
I70
sS'uru'
p1142
I71
sS'tit'
p1143
I1278
sS'tiu'
p1144
I1
sS'tiv'
p1145
I154
sS'n\xc2\xb0'
p1146
I1
sS'tip'
p1147
I26
sS'tiq'
p1148
I571
sS'tir'
p1149
I593
sS'tis'
p1150
I374
sS'til'
p1151
I1028
sS'tim'
p1152
I309
sS'tin'
p1153
I1411
sS'tio'
p1154
I2467
sS'tik'
p1155
I2
sS'tid'
p1156
I33
sS'tie'
p1157
I1258
sS'tif'
p1158
I139
sS'tig'
p1159
I151
sS'tia'
p1160
I75
sS'tib'
p1161
I53
sS'tic'
p1162
I288
sS'ick'
p1163
I12
sS'\xa0le'
p1164
I18
sS'cks'
p1165
I4
sS'\xa0la'
p1166
I56
sS'oew'
p1167
I2
sS'axe'
p1168
I4
sS'squ'
p1169
I1655
sS'\xa0lu'
p1170
I3
sS'dqu'
p1171
I1
sS'\xa2n\xc3'
p1172
I1
sS'\xa2pe'
p1173
I1
sS'hee'
p1174
I1
sS'pey'
p1175
I2
sS'ums'
p1176
I9
sS'\xb4ts'
p1177
I3
sS'icl'
p1178
I79
sS'\xa2fr'
p1179
I4
sS'fst'
p1180
I2
sS'p\xc3\x88'
p1181
I1
sS'\xa9lu'
p1182
I8
sS'nxi'
p1183
I8
sS'osy'
p1184
I1
sS'roi'
p1185
I1524
sS'roj'
p1186
I58
sS'cot'
p1187
I133
sS'rol'
p1188
I291
sS'rom'
p1189
I532
sS'ron'
p1190
I1251
sS'd\xc3\x89'
p1191
I2
sS'osq'
p1192
I9
sS'roa'
p1193
I12
sS'oss'
p1194
I597
sS'roc'
p1195
I501
sS'rod'
p1196
I249
sS'ost'
p1197
I126
sS'rof'
p1198
I457
sS'rog'
p1199
I142
sS'osi'
p1200
I223
sS'roy'
p1201
I187
sS'lli'
p1202
I528
sS'llo'
p1203
I511
sS'oso'
p1204
I16
sS'osa'
p1205
I250
sS'roq'
p1206
I58
sS'lla'
p1207
I1453
sS'ros'
p1208
I617
sS'ose'
p1209
I649
sS'rou'
p1210
I2156
sS'lle'
p1211
I12998
sS'row'
p1212
I1
sS'd\xc3\xae'
p1213
I110
sS'fod'
p1214
I3
sS'vet'
p1215
I51
sS'veu'
p1216
I518
sS'ver'
p1217
I2571
sS'ves'
p1218
I353
sS'd\xc3\xa8'
p1219
I251
sS'd\xc3\xa9'
p1220
I4222
sS'vez'
p1221
I393
sS'vex'
p1222
I24
sS'yve'
p1223
I1
sS'ved'
p1224
I1
sS'cne'
p1225
I8
sS'goz'
p1226
I1
sS'vec'
p1227
I1880
sS'vea'
p1228
I344
sS'ven'
p1229
I2425
sS'vel'
p1230
I372
sS'vem'
p1231
I320
sS'vei'
p1232
I352
sS'me'
p1233
I1082
sS'eru'
p1234
I1
sS'yio'
p1235
I2
sS'xha'
p1236
I17
sS'ics'
p1237
I10
sS'\xbbl\xc3'
p1238
I30
sS'erp'
p1239
I64
sS'bo\xc3'
p1240
I46
sS'fon'
p1241
I1074
sS'hme'
p1242
I13
sS'dil'
p1243
I24
sS'dim'
p1244
I115
sS'din'
p1245
I275
sS'dio'
p1246
I56
sS'gue'
p1247
I1051
sS'\xa9v\xc3'
p1248
I97
sS'did'
p1249
I15
sS'die'
p1250
I795
sS'gui'
p1251
I196
sS'dig'
p1252
I173
sS'guo'
p1253
I1
sS'dia'
p1254
I182
sS'gum'
p1255
I22
sS'dic'
p1256
I49
sS'gus'
p1257
I88
sS'dep'
p1258
I378
sS's\xc2\xa0'
p1259
I37
sS'dix'
p1260
I383
sS'diz'
p1261
I15
sS'deq'
p1262
I2
sS'dit'
p1263
I1848
sS'diu'
p1264
I19
sS'div'
p1265
I141
sS'cry'
p1266
I1
sS'dip'
p1267
I7
sS'diq'
p1268
I72
sS'dir'
p1269
I682
sS'dis'
p1270
I1804
sS'\xa0bi'
p1271
I5
sS'plu'
p1272
I2410
sS'hti'
p1273
I2
sS've\xc2'
p1274
I1
sS'htr'
p1275
I8
sS'yc\xc3'
p1276
I3
sS'run'
p1277
I111
sS'hty'
p1278
I4
sS'xiv'
p1279
I15
sS'\xable'
p1280
I3
sS'\xabla'
p1281
I6
sS'yso'
p1282
I3
sS'ro\xc3'
p1283
I46
sS'\xaapa'
p1284
I2
sS'\xabls'
p1285
I2
sS'll\xc3'
p1286
I499
sS'os\xc3'
p1287
I158
sS'xtu'
p1288
I3
sS'gu\xc3'
p1289
I206
sS'\xa9ve'
p1290
I216
sS'\xa9\xc3\xa9'
p1291
I10
sS'oep'
p1292
I1
sS'\xa9\xc3\xaf'
p1293
I3
sS'\xa9va'
p1294
I61
sS'ydi'
p1295
I2
sS'\xc3\x87a'
p1296
I195
sS'\xa9\xc3\xa2'
p1297
I29
sS'yde'
p1298
I4
sS'\xa9\xc3\xa7'
p1299
I1
sS'\xa9vi'
p1300
I160
sS'di\xc3'
p1301
I70
sS'\xa9vu'
p1302
I15
sS'ecc'
p1303
I2
sS'uff'
p1304
I738
sS'\xa9vr'
p1305
I59
sS'oet'
p1306
I2
sS'ydr'
p1307
I19
sS'boy'
p1308
I20
sS'\xbbls'
p1309
I5
sS'ded'
p1310
I67
sS'bor'
p1311
I600
sS'bos'
p1312
I30
sS'bot'
p1313
I150
sS'bou'
p1314
I2081
sS'bov'
p1315
I85
sS'kly'
p1316
I4
sS'boh'
p1317
I4
sS'\xbble'
p1318
I43
sS'ruy'
p1319
I23
sS'bol'
p1320
I17
sS'\xbbla'
p1321
I78
sS'bon'
p1322
I1049
sS'boa'
p1323
I5
sS'bob'
p1324
I16
sS'deg'
p1325
I55
sS'eks'
p1326
I1
sS'boe'
p1327
I29
sS'bog'
p1328
I2
sS'pve'
p1329
I1
sS'jau'
p1330
I131
sS'uzi'
p1331
I2
sS'ipe'
p1332
I94
sS'uze'
p1333
I73
sS'iph'
p1334
I3
sS'ipi'
p1335
I77
sS'ipo'
p1336
I43
sS'ipl'
p1337
I41
sS'ngi'
p1338
I69
sS'ipr'
p1339
I2
sS'ips'
p1340
I1
sS'ipp'
p1341
I21
sS'olg'
p1342
I1
sS'ipt'
p1343
I19
sS'ipu'
p1344
I10
sS'jaq'
p1345
I5
sS'rup'
p1346
I29
sS'jan'
p1347
I44
sS'ayo'
p1348
I340
sS'ufs'
p1349
I32
sS'\xa0m\xc3'
p1350
I1
sS'aye'
p1351
I143
sS'ayd'
p1352
I1
sS'mst'
p1353
I2
sS'aya'
p1354
I347
sS'\xa0ge'
p1355
I2
sS'uap'
p1356
I5
sS'ayu'
p1357
I2
sS'sp\xc3'
p1358
I344
sS'ree'
p1359
I5
sS'ays'
p1360
I67
sS'\xa8br'
p1361
I68
sS'ood'
p1362
I1
sS'ygl'
p1363
I3
sS'jah'
p1364
I1
sS'obo'
p1365
I6
sS'ool'
p1366
I20
sS'jai'
p1367
I19
sS'ook'
p1368
I13
sS'ulu'
p1369
I234
sS'oop'
p1370
I33
sS'oos'
p1371
I3
sS'oor'
p1372
I1
sS'kur'
p1373
I4
sS'\xc3\x89c'
p1374
I38
sS'ibi'
p1375
I80
sS'cay'
p1376
I4
sS'uly'
p1377
I1
sS'ibl'
p1378
I546
sS'\xc3\x89f'
p1379
I1
sS'\xc3\x89e'
p1380
I1
sS'ibo'
p1381
I44
sS'cas'
p1382
I369
sS'car'
p1383
I917
sS'ulp'
p1384
I47
sS'cap'
p1385
I973
sS'flu'
p1386
I49
sS'ibe'
p1387
I60
sS'ult'
p1388
I138
sS'cat'
p1389
I351
sS'fli'
p1390
I8
sS'caj'
p1391
I6
sS'ma\xc3'
p1392
I185
sS'\xc3\x89p'
p1393
I8
sS'cao'
p1394
I6
sS'ulo'
p1395
I159
sS'flo'
p1396
I331
sS'cal'
p1397
I481
sS'fla'
p1398
I490
sS'ulc'
p1399
I4
sS'ibr'
p1400
I155
sS'ula'
p1401
I861
sS'fle'
p1402
I483
sS'caf'
p1403
I94
sS'\xaave'
p1404
I66
sS'ule'
p1405
I1857
sS'\xa0me'
p1406
I5
sS'\xa0ma'
p1407
I55
sS'spr'
p1408
I73
sS'\xa0mo'
p1409
I42
sS'spu'
p1410
I39
sS'ay\xc3'
p1411
I81
sS'aie'
p1412
I5330
sS'sph'
p1413
I129
sS'spi'
p1414
I156
sS'spl'
p1415
I33
sS'nv\xc3'
p1416
I3
sS'spo'
p1417
I202
sS'spa'
p1418
I227
sS'tza'
p1419
I1
sS'spe'
p1420
I248
sS'zas'
p1421
I1
sS'ip\xc3'
p1422
I20
sS'hus'
p1423
I10
sS'\xa0no'
p1424
I53
sS'nyr'
p1425
I1
sS'yle'
p1426
I3
sS'nym'
p1427
I2
sS'nyc'
p1428
I1
sS'maq'
p1429
I11
sS'map'
p1430
I2
sS'\xa8te'
p1431
I172
sS'mar'
p1432
I1824
sS'mau'
p1433
I250
sS'mat'
p1434
I523
sS'\xc3\xa9\xc2'
p1435
I6
sS'aon'
p1436
I12
sS'uli'
p1437
I407
sS'xix'
p1438
I4
sS'n\xc3\x89'
p1439
I1
sS'mac'
p1440
I219
sS'hoe'
p1441
I10
sS'aos'
p1442
I3
sS'mad'
p1443
I750
sS'mag'
p1444
I433
sS'maf'
p1445
I1
sS'mai'
p1446
I4648
sS'ul\xc3'
p1447
I185
sS'fl\xc3'
p1448
I171
sS'maj'
p1449
I21
sS'mam'
p1450
I201
sS'mal'
p1451
I865
sS'man'
p1452
I2163
sS'ght'
p1453
I2
sS'dyl'
p1454
I3
sS'cod'
p1455
I3
sS'rvo'
p1456
I63
sS'n\xc3\xb4'
p1457
I7
sS'gea'
p1458
I755
sS'su'
p1459
I17
sS'n\xc3\xa8'
p1460
I137
sS'hon'
p1461
I342
sS'n\xc3\xaa'
p1462
I227
sS'gha'
p1463
I1
sS'n\xc3\xae'
p1464
I5
sS'hoo'
p1465
I1
sS'sa'
p1466
I2165
sS'yli'
p1467
I16
sS'enj'
p1468
I22
sS'se'
p1469
I4400
sS'n\xc3\xa7'
p1470
I512
sS'a\xc2\xa0'
p1471
I31
sS'tty'
p1472
I3
sS'lse'
p1473
I8
sS'na\xc3'
p1474
I155
sS'\xa9\xc2\xa0'
p1475
I6
sS'ttr'
p1476
I474
sS'lsl'
p1477
I2
sS'soc'
p1478
I99
sS'ttu'
p1479
I59
sS'lsi'
p1480
I22
sS'dyd'
p1481
I1
sS'tti'
p1482
I163
sS'aha'
p1483
I72
sS'tto'
p1484
I214
sS'tta'
p1485
I804
sS'hoi'
p1486
I150
sS'tte'
p1487
I3561
sS'cof'
p1488
I12
sS'\xc3\xa2b'
p1489
I31
sS'\xc3\xa2c'
p1490
I539
sS'\xc3\xa2f'
p1491
I5
sS'\xc3\xa2g'
p1492
I44
sS'gti'
p1493
I4
sS'\xc3\xa2i'
p1494
I17
sS'\xc3\xa2n'
p1495
I62
sS'hot'
p1496
I34
sS'\xc3\xa2l'
p1497
I231
sS'\xc3\xa2m'
p1498
I87
sS'dja'
p1499
I2
sS'\xc3\xa2s'
p1500
I3
sS'\xc3\xa2p'
p1501
I14
sS'\xc3\xa2q'
p1502
I3
sS'dje'
p1503
I2
sS'\xc3\xa2t'
p1504
I637
sS'ent'
p1505
I19191
sS'hos'
p1506
I388
sS'nol'
p1507
I50
sS'nom'
p1508
I500
sS'non'
p1509
I913
sS'noo'
p1510
I1
sS'noi'
p1511
I392
sS'esk'
p1512
I1
sS'nod'
p1513
I10
sS'ppo'
p1514
I336
sS'nof'
p1515
I7
sS'nog'
p1516
I2
sS'nob'
p1517
I28
sS'noc'
p1518
I115
sS'\xa9g\xc3'
p1519
I138
sS'noy'
p1520
I67
sS'not'
p1521
I484
sS'nou'
p1522
I2384
sS'nov'
p1523
I19
sS'ppl'
p1524
I99
sS'nop'
p1525
I14
sS'ryt'
p1526
I5
sS'nor'
p1527
I371
sS'nos'
p1528
I263
sS'ulb'
p1529
I22
sS'sop'
p1530
I21
sS'rl\xc3'
p1531
I47
sS'sru'
p1532
I1
sS'ity'
p1533
I1
sS'xie'
p1534
I14
sS'\xabpo'
p1535
I1
sS'inx'
p1536
I3
sS'lm\xc3'
p1537
I16
sS'\xaana'
p1538
I37
sS'or\xc3'
p1539
I211
sS'uso'
p1540
I16
sS'el'
p1541
I1
sS'en'
p1542
I5233
sS'\xa9um'
p1543
I13
sS'eh'
p1544
I193
sS'\xa9un'
p1545
I38
sS'\xc3\x86g'
p1546
I2
sS'xyg'
p1547
I20
sS'eu'
p1548
I183
sS'et'
p1549
I9486
sS'\xa9us'
p1550
I34
sS'es'
p1551
I53
sS'er'
p1552
I5
sS'a\xc3\xab'
p1553
I1
sS'ejo'
p1554
I37
sS'ls\xc3'
p1555
I8
sS'blu'
p1556
I12
sS'eje'
p1557
I26
sS'eja'
p1558
I3
sS'blo'
p1559
I182
sS'bli'
p1560
I437
sS'dif'
p1561
I176
sS'ble'
p1562
I2530
sS'mbs'
p1563
I4
sS'bla'
p1564
I1344
sS'rlo'
p1565
I43
sS'rli'
p1566
I18
sS'ory'
p1567
I3
sS'rle'
p1568
I260
sS'ort'
p1569
I2557
sS'oru'
p1570
I18
sS'orr'
p1571
I161
sS'ors'
p1572
I1464
sS'orp'
p1573
I209
sS'orq'
p1574
I6
sS'orn'
p1575
I162
sS'oro'
p1576
I40
sS'orl'
p1577
I37
sS'orm'
p1578
I753
sS'ork'
p1579
I18
sS'orh'
p1580
I4
sS'ori'
p1581
I565
sS'orf'
p1582
I12
sS'org'
p1583
I376
sS'ord'
p1584
I1080
sS'ore'
p1585
I1247
sS'orb'
p1586
I72
sS'orc'
p1587
I389
sS'ora'
p1588
I357
sS'\xc3\x94t'
p1589
I2
sS'\xa9gu'
p1590
I102
sS'\xa9gr'
p1591
I45
sS'kap'
p1592
I1
sS'xot'
p1593
I1
sS'maz'
p1594
I9
sS'yur'
p1595
I2
sS'\xa9gy'
p1596
I3
sS'no\xc3'
p1597
I7
sS'\xa9ge'
p1598
I118
sS'yxi'
p1599
I9
sS'\xa9ga'
p1600
I394
sS'ulg'
p1601
I15
sS'\xa9go'
p1602
I118
sS'\xa9gn'
p1603
I46
sS'\xa9gl'
p1604
I84
sS'xpa'
p1605
I6
sS'\xa9gi'
p1606
I56
sS'lay'
p1607
I46
sS'onj'
p1608
I16
sS'onh'
p1609
I251
sS'oni'
p1610
I146
sS'onn'
p1611
I3288
sS'ono'
p1612
I186
sS'zai'
p1613
I56
sS'onb'
p1614
I2
sS'onc'
p1615
I1234
sS'ona'
p1616
I100
sS'onf'
p1617
I349
sS'ong'
p1618
I1144
sS'ond'
p1619
I2667
sS'one'
p1620
I58
sS'onz'
p1621
I61
sS'xx'
p1622
I4
sS'mel'
p1623
I64
sS'uld'
p1624
I1
sS'onr'
p1625
I6
sS'ons'
p1626
I4711
sS'onp'
p1627
I3
sS'onq'
p1628
I63
sS'zar'
p1629
I43
sS'de\xc2'
p1630
I3
sS'ont'
p1631
I4458
sS'onu'
p1632
I17
sS'iam'
p1633
I13
sS'ial'
p1634
I95
sS'ian'
p1635
I378
sS'iai'
p1636
I435
sS'pr\xc3'
p1637
I1776
sS'an\xc3'
p1638
I279
sS'sa\xc3'
p1639
I14
sS'iad'
p1640
I14
sS'iag'
p1641
I78
sS'uks'
p1642
I1
sS'\xc3\x88m'
p1643
I3
sS'iac'
p1644
I39
sS'iab'
p1645
I80
sS'\xc3\x88r'
p1646
I7
sS'\xc3\x88s'
p1647
I1
sS'afs'
p1648
I1
sS'uki'
p1649
I1
sS'iau'
p1650
I32
sS'iat'
p1651
I67
sS'uke'
p1652
I1
sS'iaq'
p1653
I6
sS'iap'
p1654
I9
sS'ias'
p1655
I33
sS'iar'
p1656
I37
sS'hud'
p1657
I2
sS'hue'
p1658
I33
sS'mop'
p1659
I2
sS'hug'
p1660
I2
sS'uxq'
p1661
I42
sS'gia'
p1662
I5
sS'hub'
p1663
I2
sS'huc'
p1664
I19
sS'\x89mi'
p1665
I6
sS'hum'
p1666
I189
sS'hun'
p1667
I4
sS'hui'
p1668
I302
sS'hut'
p1669
I178
sS'ax\xc3'
p1670
I1
sS'hup'
p1671
I1
sS'hur'
p1672
I34
sS'xpr'
p1673
I45
sS'pne'
p1674
I1
sS'oxi'
p1675
I3
sS'cys'
p1676
I2
sS'rze'
p1677
I29
sS'wat'
p1678
I1
sS'co'
p1679
I1
sS't\xc3\xa2'
p1680
I133
sS'\xaen\xc3'
p1681
I68
sS'rzi'
p1682
I1
sS'uy\xc3'
p1683
I44
sS'gac'
p1684
I9
sS'\xabou'
p1685
I1
sS'and'
p1686
I3903
sS'ane'
p1687
I119
sS'sai'
p1688
I3624
sS'ang'
p1689
I1401
sS'pra'
p1690
I78
sS'san'
p1691
I2682
sS'sam'
p1692
I79
sS'anc'
p1693
I2660
sS'sac'
p1694
I266
sS'sab'
p1695
I108
sS'pro'
p1696
I2018
sS'ano'
p1697
I262
sS'pri'
p1698
I1643
sS'ani'
p1699
I615
sS'anj'
p1700
I32
sS'sad'
p1701
I18
sS'ant'
p1702
I10684
sS'anu'
p1703
I20
sS'say'
p1704
I56
sS'sax'
p1705
I7
sS'anp'
p1706
I6
sS'anq'
p1707
I456
sS'gab'
p1708
I8
sS'ans'
p1709
I5584
sS'sas'
p1710
I30
sS'sar'
p1711
I115
sS'saq'
p1712
I9
sS'sap'
p1713
I29
sS'anx'
p1714
I10
sS'sav'
p1715
I492
sS'sau'
p1716
I327
sS'sat'
p1717
I225
sS'zoa'
p1718
I1
sS'zod'
p1719
I2
sS'on\xc2'
p1720
I13
sS'on\xc3'
p1721
I124
sS'kan'
p1722
I5
sS'usu'
p1723
I10
sS'zol'
p1724
I3
sS'zon'
p1725
I122
sS'zoo'
p1726
I34
sS'zop'
p1727
I1
sS'zos'
p1728
I4
sS'zot'
p1729
I3
sS'zou'
p1730
I47
sS'rso'
p1731
I287
sS'aiv'
p1732
I2
sS'p\xc3\xbb'
p1733
I27
sS'\xaenm'
p1734
I5
sS'iyb'
p1735
I1
sS'\xaeni'
p1736
I12
sS'\xa9fu'
p1737
I13
sS'sev'
p1738
I9
sS'\xaene'
p1739
I164
sS'\xaena'
p1740
I102
sS'p\xc3\xaa'
p1741
I304
sS'p\xc3\xa8'
p1742
I393
sS'p\xc3\xa9'
p1743
I1421
sS'uye'
p1744
I22
sS'p\xc3\xa2'
p1745
I251
sS'bl\xc3'
p1746
I130
sS'\xaent'
p1747
I9
sS'p\xc3\xa7'
p1748
I15
sS'uyo'
p1749
I1
sS'dle'
p1750
I1
sS'fer'
p1751
I699
sS'ody'
p1752
I1
sS'\xab\xc2\xa0'
p1753
I39
sS'p\xc3\x94'
p1754
I1
sS'eha'
p1755
I1
sS'\xa2lo'
p1756
I1
sS'\xa2li'
p1757
I41
sS'\xa8ce'
p1758
I321
sS'\xa2le'
p1759
I182
sS'irq'
p1760
I4
sS'\xa8ch'
p1761
I55
sS'axi'
p1762
I12
sS'\xa2la'
p1763
I7
sS'axo'
p1764
I4
sS'\xa8cl'
p1765
I29
sS'\xabre'
p1766
I3
sS'wca'
p1767
I1
sS'set'
p1768
I57
sS'tki'
p1769
I1
sS'nla'
p1770
I24
sS'nle'
p1771
I104
sS'\xa9f\xc3'
p1772
I50
sS'nli'
p1773
I19
sS'xis'
p1774
I159
sS'kar'
p1775
I4
sS'yto'
p1776
I1
sS'eho'
p1777
I112
sS'rm\xc3'
p1778
I234
sS'oby'
p1779
I2
sS'alh'
p1780
I122
sS'ffu'
p1781
I16
sS'ln\xc3'
p1782
I1
sS'\xa9fa'
p1783
I69
sS'ges'
p1784
I912
sS'ger'
p1785
I1537
sS'ssy'
p1786
I2
sS'geu'
p1787
I109
sS'get'
p1788
I10
sS'ssu'
p1789
I393
sS'gez'
p1790
I22
sS'gey'
p1791
I1
sS'\xa0ne'
p1792
I5
sS'gic'
p1793
I4
sS'dym'
p1794
I1
sS'sso'
p1795
I713
sS'ssi'
p1796
I1584
sS'go\xc3'
p1797
I157
sS'ged'
p1798
I1
sS'sse'
p1799
I3799
sS'gei'
p1800
I3
sS'ssa'
p1801
I2892
sS'gen'
p1802
I873
sS'gem'
p1803
I118
sS'gel'
p1804
I30
sS'yte'
p1805
I46
sS'cid'
p1806
I217
sS'ael'
p1807
I5
sS'ffl'
p1808
I278
sS'alf'
p1809
I4
sS'\xa0zi'
p1810
I1
sS'tu\xc3'
p1811
I75
sS'nja'
p1812
I18
sS'rmu'
p1813
I249
sS'\xaema'
p1814
I4
sS'cin'
p1815
I558
sS'rma'
p1816
I354
sS'rme'
p1817
I922
sS'lne'
p1818
I5
sS'rmi'
p1819
I466
sS'rmo'
p1820
I98
sS'cis'
p1821
I131
sS'\xa9fr'
p1822
I17
sS'cir'
p1823
I114
sS'ds\xc2'
p1824
I1
sS'\xabbo'
p1825
I1
sS'its'
p1826
I516
sS'tbe'
p1827
I1
sS'\xa9fe'
p1828
I124
sS'nl\xc3'
p1829
I13
sS'cip'
p1830
I109
sS'ffa'
p1831
I362
sS'yth'
p1832
I12
sS'\xa9fl'
p1833
I86
sS'\xa9fo'
p1834
I15
sS'\xa9fi'
p1835
I138
sS'yta'
p1836
I1
sS'fir'
p1837
I98
sS'tus'
p1838
I38
sS'ciu'
p1839
I1
sS'uns'
p1840
I94
sS'tup'
p1841
I54
sS'tur'
p1842
I885
sS'utu'
p1843
I60
sS'tut'
p1844
I27
sS'tuv'
p1845
I3
sS'tui'
p1846
I23
sS'clo'
p1847
I143
sS'tul'
p1848
I18
sS'tum'
p1849
I61
sS'tun'
p1850
I104
sS'tuo'
p1851
I8
sS'\xc3\xa9h'
p1852
I25
sS'je'
p1853
I3710
sS'tub'
p1854
I21
sS'tuc'
p1855
I2
sS'tud'
p1856
I344
sS'tue'
p1857
I211
sS'tuf'
p1858
I2
sS'tug'
p1859
I3
sS'ts\xc2'
p1860
I4
sS'vue'
p1861
I125
sS'unt'
p1862
I23
sS'a\xc2\xbb'
p1863
I1
sS'vul'
p1864
I30
sS'\x89pe'
p1865
I1
sS'job'
p1866
I3
sS'ge\xc3'
p1867
I24
sS's'
p1868
I3426
sS'joc'
p1869
I1
sS'vur'
p1870
I14
sS'vus'
p1871
I30
sS'\xbbte'
p1872
I70
sS'ss\xc3'
p1873
I966
sS'i\xc3\xa9'
p1874
I785
sS'i\xc3\xa8'
p1875
I2320
sS'poy'
p1876
I1
sS'\x89lo'
p1877
I1
sS'pot'
p1878
I131
sS'pou'
p1879
I4199
sS'por'
p1880
I1396
sS'pos'
p1881
I823
sS'pop'
p1882
I25
sS'poq'
p1883
I30
sS'pon'
p1884
I1037
sS'poo'
p1885
I6
sS'pol'
p1886
I187
sS'pom'
p1887
I88
sS'poi'
p1888
I1064
sS'wns'
p1889
I1
sS'pog'
p1890
I1
sS'pod'
p1891
I25
sS'poe'
p1892
I1
sS'pob'
p1893
I1
sS'poc'
p1894
I85
sS'\x89ly'
p1895
I3
sS'\xa2m\xc3'
p1896
I5
sS'i\xc3\x88'
p1897
I7
sS'fic'
p1898
I328
sS'vro'
p1899
I31
sS'lcr'
p1900
I1
sS'ix\xc2'
p1901
I1
sS'ux\xc2'
p1902
I3
sS'fif'
p1903
I13
sS'cqu'
p1904
I24
sS'fig'
p1905
I144
sS'mog'
p1906
I3
sS'\xa9to'
p1907
I428
sS'bma'
p1908
I1
sS'\xc3\xae'
p1909
I1
sS'\xa9th'
p1910
I11
sS'\xa9ti'
p1911
I341
sS'\xa9te'
p1912
I363
sS'es\xc3'
p1913
I5
sS'\xa9ta'
p1914
I4621
sS'gts'
p1915
I77
sS'kel'
p1916
I2
sS'\xa9ty'
p1917
I2
sS'\xa9tu'
p1918
I108
sS'\xa9tr'
p1919
I444
sS'\xaat\xc3'
p1920
I86
sS'uj\xc3'
p1921
I1
sS'eis'
p1922
I1
sS'eir'
p1923
I2
sS'ubd'
p1924
I6
sS'rgi'
p1925
I227
sS'eiz'
p1926
I57
sS'z\xc3\xa8'
p1927
I4
sS'z\xc3\xa9'
p1928
I34
sS'fio'
p1929
I5
sS'eic'
p1930
I6
sS'eig'
p1931
I229
sS'eif'
p1932
I1
sS'\xbbne'
p1933
I1
sS'moe'
p1934
I11
sS'eil'
p1935
I2173
sS'ein'
p1936
I1035
sS'ive'
p1937
I723
sS'gh\xc3'
p1938
I1
sS'uxu'
p1939
I10
sS'iva'
p1940
I597
sS'uxp'
p1941
I1
sS'\xa2me'
p1942
I77
sS'ygr'
p1943
I1
sS'ivo'
p1944
I47
sS'ivi'
p1945
I244
sS'uxe'
p1946
I39
sS'ivr'
p1947
I396
sS'\xa9al'
p1948
I52
sS'kad'
p1949
I1
sS'uxi'
p1950
I30
sS'pap'
p1951
I146
sS'paq'
p1952
I97
sS'par'
p1953
I5833
sS'pas'
p1954
I4998
sS'pat'
p1955
I338
sS'pau'
p1956
I540
sS'pav'
p1957
I110
sS'jat'
p1958
I1
sS'pay'
p1959
I204
sS'paz'
p1960
I2
sS'\xa7or'
p1961
I2
sS'\xbbre'
p1962
I31
sS'\xa8de'
p1963
I63
sS'pac'
p1964
I111
sS'pad'
p1965
I7
sS'paf'
p1966
I4
sS'pag'
p1967
I399
sS'pah'
p1968
I1
sS'pai'
p1969
I688
sS'pal'
p1970
I162
sS'po\xc3'
p1971
I72
sS'pan'
p1972
I366
sS'pao'
p1973
I8
sS'oin'
p1974
I1498
sS'oim'
p1975
I1
sS'oil'
p1976
I440
sS'\xa0em'
p1977
I3
sS'oig'
p1978
I347
sS'oif'
p1979
I75
sS'oie'
p1980
I429
sS'oid'
p1981
I200
sS'oic'
p1982
I74
sS'gru'
p1983
I9
sS'oix'
p1984
I544
sS'oiv'
p1985
I28
sS'oit'
p1986
I949
sS'ois'
p1987
I2810
sS'oir'
p1988
I3201
sS'oiq'
p1989
I12
sS'\xa9za'
p1990
I4
sS'\xaatu'
p1991
I57
sS'\xa9t\xc3'
p1992
I373
sS'\xaats'
p1993
I49
sS'\xaatr'
p1994
I1092
sS'ccl'
p1995
I7
sS'cco'
p1996
I289
sS'ujo'
p1997
I663
sS'\xaati'
p1998
I61
sS'uji'
p1999
I1
sS'\xaate'
p2000
I1222
sS'uje'
p2001
I217
sS'rgn'
p2002
I37
sS'cca'
p2003
I78
sS'uja'
p2004
I1
sS'ccc'
p2005
I1
sS'\xa0on'
p2006
I17
sS'rgl'
p2007
I2
sS'\xa0a\xc2'
p2008
I4
sS'ns\xc3'
p2009
I125
sS'\xa0oh'
p2010
I41
sS'\xafes'
p2011
I1
sS'rje'
p2012
I2
sS'ucu'
p2013
I198
sS'dju'
p2014
I1
sS'ne'
p2015
I3938
sS'cyd'
p2016
I1
sS'uct'
p2017
I87
sS'\xafen'
p2018
I10
sS'\x94le'
p2019
I1
sS'rgo'
p2020
I42
sS'bsi'
p2021
I3
sS'mb\xc3'
p2022
I182
sS'\xa0or'
p2023
I1
sS'\xa0mi'
p2024
I1
sS'\xc3\xa9u'
p2025
I85
sS'xca'
p2026
I3
sS'okl'
p2027
I4
sS'naq'
p2028
I3
sS'uig'
p2029
I19
sS'i\xc3\xa2'
p2030
I5
sS'ez\xc2'
p2031
I1
sS'ami'
p2032
I677
sS'moz'
p2033
I3
sS'moy'
p2034
I95
sS'psi'
p2035
I1
sS'amm'
p2036
I236
sS'aml'
p2037
I1
sS'amo'
p2038
I199
sS'amn'
p2039
I23
sS'ama'
p2040
I929
sS'mor'
p2041
I531
sS'moq'
p2042
I46
sS'amb'
p2043
I555
sS'\xa8ve'
p2044
I159
sS'mou'
p2045
I1083
sS'pse'
p2046
I2
sS'mok'
p2047
I1
sS'\xa0et'
p2048
I23
sS'moi'
p2049
I1600
sS'psy'
p2050
I1
sS'mon'
p2051
I3085
sS'mom'
p2052
I297
sS'mol'
p2053
I148
sS'moc'
p2054
I4
sS'mob'
p2055
I133
sS'ams'
p2056
I7
sS'\xa8vr'
p2057
I161
sS'amu'
p2058
I90
sS'\xb4te'
p2059
I227
sS'mod'
p2060
I218
sS'n\xc2\xa0'
p2061
I24
sS'\xc3\x89r'
p2062
I2
sS'nu'
p2063
I35
sS'pa\xc3'
p2064
I9
sS't'
p2065
I420
sS'ucc'
p2066
I104
sS'lcy'
p2067
I6
sS'\xa0es'
p2068
I13
sS'cyo'
p2069
I6
sS'bi\xc3'
p2070
I13
sS'myt'
p2071
I3
sS'of\xc3'
p2072
I1
sS'rpi'
p2073
I18
sS'zbe'
p2074
I3
sS'ezi'
p2075
I3
sS'pu\xc3'
p2076
I1
sS'eza'
p2077
I1
sS'\xa0ab'
p2078
I1
sS'\xaape'
p2079
I3
sS'unc'
p2080
I2
sS'\xa0ah'
p2081
I66
sS'cut'
p2082
I88
sS'\xa0al'
p2083
I19
sS'\xa0o\xc3'
p2084
I1
sS'icm'
p2085
I1
sS'\xa0ap'
p2086
I3
sS'ddi'
p2087
I14
sS'\xa0as'
p2088
I4
sS'\xa0at'
p2089
I4
sS'\xa0au'
p2090
I9
sS'\xa0av'
p2091
I3
sS'dda'
p2092
I2
sS'dde'
p2093
I1
sS'cyn'
p2094
I1
sS'ynt'
p2095
I1
sS'nme'
p2096
I5
sS'\xa0li'
p2097
I6
sS'nma'
p2098
I2
sS'nmo'
p2099
I2
sS'\xa0bl'
p2100
I2
sS'acc'
p2101
I656
sS'on'
p2102
I2505
sS'aca'
p2103
I91
sS'sra'
p2104
I3
sS'ace'
p2105
I988
sS'oh'
p2106
I248
sS'ack'
p2107
I7
sS'of'
p2108
I2
sS'am\xc3'
p2109
I149
sS'ach'
p2110
I1042
sS'aco'
p2111
I153
sS'acn'
p2112
I8
sS'dzo'
p2113
I1
sS'acl'
p2114
I76
sS'acs'
p2115
I18
sS'acr'
p2116
I200
sS'acq'
p2117
I19
sS'acu'
p2118
I157
sS'act'
p2119
I278
sS'\xb4t\xc3'
p2120
I222
sS'ou'
p2121
I511
sS'os'
p2122
I33
sS'or'
p2123
I260
sS'bje'
p2124
I56
sS'c\xc3\xaa'
p2125
I4
sS'ngh'
p2126
I1
sS'mas'
p2127
I252
sS'\xa9ka'
p2128
I1
sS'ig\xc3'
p2129
I68
sS'bba'
p2130
I5
sS'mt\xc3'
p2131
I1
sS'\xa9ki'
p2132
I2
sS'het'
p2133
I239
sS'heu'
p2134
I1406
sS'hev'
p2135
I333
sS'loa'
p2136
I1
sS'lof'
p2137
I3
sS'log'
p2138
I238
sS'her'
p2139
I1159
sS'hes'
p2140
I571
sS'alq'
p2141
I1
sS'loi'
p2142
I430
sS'lon'
p2143
I1819
sS'loo'
p2144
I1
sS'hez'
p2145
I545
sS'lom'
p2146
I184
sS'lor'
p2147
I1554
sS'los'
p2148
I98
sS'hef'
p2149
I71
sS'\xa9sh'
p2150
I43
sS'lov'
p2151
I2
sS'hea'
p2152
I4
sS'lot'
p2153
I617
sS'hec'
p2154
I20
sS'hel'
p2155
I39
sS'hem'
p2156
I331
sS'hen'
p2157
I151
sS'loy'
p2158
I134
sS'hei'
p2159
I95
sS'jub'
p2160
I2
sS'juc'
p2161
I1
sS'rju'
p2162
I1
sS'uin'
p2163
I412
sS'jug'
p2164
I53
sS'jud'
p2165
I2
sS'i\xc2\xa0'
p2166
I10
sS'yla'
p2167
I15
sS'jui'
p2168
I48
sS'jun'
p2169
I4
sS'jul'
p2170
I10
sS'jum'
p2171
I3
sS'jur'
p2172
I111
sS'jus'
p2173
I659
sS'jup'
p2174
I122
sS'i\xc2\xbb'
p2175
I2
sS'rjo'
p2176
I1
sS'wal'
p2177
I30
sS'\xa9sa'
p2178
I59
sS'mpr'
p2179
I479
sS'\xa9b\xc3'
p2180
I54
sS'\xa9es'
p2181
I1403
sS'\xa9er'
p2182
I11
sS'bbr'
p2183
I1
sS'agg'
p2184
I10
sS'\x89qu'
p2185
I8
sS'\xa9em'
p2186
I6
sS'\xa9el'
p2187
I26
sS'\xa9en'
p2188
I30
sS'\x88me'
p2189
I3
sS'av\xc3'
p2190
I90
sS'lo\xc3'
p2191
I6
sS'rva'
p2192
I933
sS'uib'
p2193
I44
sS'uie'
p2194
I162
sS'uid'
p2195
I74
sS'rve'
p2196
I326
sS'uif'
p2197
I9
sS'ai'
p2198
I556
sS'ah'
p2199
I275
sS'rvi'
p2200
I245
sS'\xa7at'
p2201
I1
sS'uim'
p2202
I4
sS'uil'
p2203
I954
sS'uio'
p2204
I2
sS'an'
p2205
I25
sS'uiq'
p2206
I4
sS'\xa7an'
p2207
I91
sS'as'
p2208
I69
sS'uir'
p2209
I179
sS'au'
p2210
I3123
sS'uit'
p2211
I1509
sS'\xa7ai'
p2212
I376
sS'uiv'
p2213
I449
sS'\xa7ag'
p2214
I1
sS'ohu'
p2215
I25
sS'\xa7ad'
p2216
I47
sS'eu\xc2'
p2217
I1
sS'uis'
p2218
I2352
sS'yon'
p2219
I417
sS'igu'
p2220
I361
sS'igt'
p2221
I95
sS'igs'
p2222
I3
sS'igr'
p2223
I101
sS'uzo'
p2224
I3
sS'bme'
p2225
I7
sS'igz'
p2226
I2
sS'\xa7au'
p2227
I2
sS'doa'
p2228
I1
sS'igg'
p2229
I3
sS'ige'
p2230
I299
sS'wai'
p2231
I2
sS'iga'
p2232
I140
sS'igo'
p2233
I142
sS'ign'
p2234
I1204
sS'you'
p2235
I9
sS'igl'
p2236
I9
sS'yos'
p2237
I1
sS'yor'
p2238
I17
sS'igi'
p2239
I74
sS'igh'
p2240
I2
sS'\x89co'
p2241
I35
sS'\x89cc'
p2242
I1
sS'\x89ca'
p2243
I1
sS'ta\xc3'
p2244
I1
sS'bod'
p2245
I1
sS'lge'
p2246
I8
sS'\xbbch'
p2247
I6
sS'\x89cu'
p2248
I1
sS'max'
p2249
I12
sS'smy'
p2250
I5
sS'oty'
p2251
I1
sS'nss'
p2252
I7
sS'yza'
p2253
I1
sS'ac\xc3'
p2254
I193
sS'hmi'
p2255
I2
sS'pto'
p2256
I192
sS'alo'
p2257
I1144
sS'sco'
p2258
I76
sS'alm'
p2259
I151
sS'sci'
p2260
I107
sS'sch'
p2261
I11
sS'pti'
p2262
I85
sS'ali'
p2263
I588
sS'sce'
p2264
I314
sS'alg'
p2265
I175
sS'pte'
p2266
I243
sS'ale'
p2267
I1371
sS'sca'
p2268
I204
sS'alc'
p2269
I137
sS'pta'
p2270
I99
sS'ala'
p2271
I570
sS'mni'
p2272
I28
sS'scy'
p2273
I3
sS'dsp'
p2274
I2
sS'alx'
p2275
I1
sS'aly'
p2276
I12
sS'scu'
p2277
I249
sS'mna'
p2278
I5
sS'alt'
p2279
I61
sS'alu'
p2280
I110
sS'mne'
p2281
I40
sS'alp'
p2282
I30
sS'scr'
p2283
I91
sS'smo'
p2284
I2
sS'bho'
p2285
I1
sS'dso'
p2286
I2
sS'te\xc2'
p2287
I4
sS'tu'
p2288
I431
sS'lls'
p2289
I13
sS'cc\xc3'
p2290
I68
sS'osp'
p2291
I105
sS'v\xc3\xaa'
p2292
I166
sS'te'
p2293
I140
sS'rob'
p2294
I349
sS'ta'
p2295
I48
sS'fax'
p2296
I1
sS'mpe'
p2297
I224
sS'ium'
p2298
I30
sS'mpa'
p2299
I508
sS'far'
p2300
I151
sS'mpo'
p2301
I418
sS'mpl'
p2302
I768
sS'ajo'
p2303
I158
sS'fav'
p2304
I128
sS'mph'
p2305
I58
sS'fau'
p2306
I503
sS'mpt'
p2307
I441
sS'fai'
p2308
I2322
sS'fan'
p2309
I466
sS'mps'
p2310
I444
sS'fal'
p2311
I255
sS'fam'
p2312
I211
sS'fab'
p2313
I84
sS'fac'
p2314
I600
sS'ius'
p2315
I7
sS'iur'
p2316
I5
sS'xtr'
p2317
I148
sS'fad'
p2318
I7
sS'mpy'
p2319
I1
sS'hya'
p2320
I8
sS'hyc'
p2321
I2
sS'hyd'
p2322
I19
sS'rby'
p2323
I1
sS'\xaapr'
p2324
I1
sS'\xa9on'
p2325
I22
sS'hyl'
p2326
I8
sS'hym'
p2327
I6
sS'hyn'
p2328
I1
sS'aje'
p2329
I20
sS'hyp'
p2330
I30
sS'\xa9mi'
p2331
I109
sS'hyr'
p2332
I7
sS'hys'
p2333
I33
sS'hyt'
p2334
I47
sS'sma'
p2335
I9
sS'hyx'
p2336
I9
sS'heg'
p2337
I1
sS'hyz'
p2338
I1
sS'rbu'
p2339
I14
sS'slu'
p2340
I1
sS'tei'
p2341
I241
sS'\xa0br'
p2342
I1
sS'tel'
p2343
I643
sS'tem'
p2344
I1263
sS'ten'
p2345
I2958
sS'tea'
p2346
I290
sS'tec'
p2347
I32
sS'ted'
p2348
I1
sS'pun'
p2349
I15
sS'tef'
p2350
I23
sS'\xabma'
p2351
I3
sS'tex'
p2352
I41
sS'rop'
p2353
I807
sS'tez'
p2354
I147
sS'nbo'
p2355
I2
sS'yse'
p2356
I6
sS'oha'
p2357
I4
sS'tep'
p2358
I2
sS'ter'
p2359
I2680
sS'tes'
p2360
I3236
sS'tet'
p2361
I32
sS'teu'
p2362
I438
sS'doy'
p2363
I10
sS'aba'
p2364
I245
sS'abb'
p2365
I8
sS'sud'
p2366
I102
sS'suc'
p2367
I142
sS'abe'
p2368
I69
sS'sua'
p2369
I27
sS'abh'
p2370
I1
sS'abi'
p2371
I466
sS'sum'
p2372
I7
sS'sul'
p2373
I95
sS'abl'
p2374
I1535
sS'suj'
p2375
I46
sS'sui'
p2376
I871
sS'abo'
p2377
I332
sS'mmu'
p2378
I97
sS'abr'
p2379
I173
sS'abs'
p2380
I101
sS'sus'
p2381
I261
sS'sur'
p2382
I3451
sS'sup'
p2383
I308
sS'xon'
p2384
I4
sS'aby'
p2385
I2
sS'mn\xc3'
p2386
I18
sS'suz'
p2387
I1
sS'suy'
p2388
I33
sS'\xa0pr'
p2389
I3
sS'\xa2t\xc3'
p2390
I41
sS'\xa0pu'
p2391
I2
sS'ggr'
p2392
I3
sS'\xa9ru'
p2393
I7
sS'pua'
p2394
I16
sS'gge'
p2395
I1
sS'oan'
p2396
I1
sS'\xa0pa'
p2397
I23
sS'uza'
p2398
I26
sS'\xa0pe'
p2399
I7
sS'tyo'
p2400
I4
sS'd\xc3\xaa'
p2401
I1
sS'\xa0pi'
p2402
I1
sS'\xa0po'
p2403
I8
sS'\xafde'
p2404
I10
sS'\xa0pl'
p2405
I2
sS'\x89r\xc3'
p2406
I2
sS'mp\xc3'
p2407
I313
sS'asa'
p2408
I140
sS'x\xc2\xa0'
p2409
I4
sS'fiq'
p2410
I101
sS'fa\xc3'
p2411
I172
sS'\xa7ay'
p2412
I1
sS'\xbbna'
p2413
I1
sS'gow'
p2414
I3
sS'asf'
p2415
I1
sS'\xc3\xa9c'
p2416
I2829
sS'\xc3\xa9b'
p2417
I477
sS'\xc3\xa9a'
p2418
I464
sS'via'
p2419
I51
sS'\xc3\xa9g'
p2420
I1104
sS'\xc3\xa9f'
p2421
I512
sS'\xc3\xa9e'
p2422
I5005
sS'vie'
p2423
I1237
sS'\xc3\xa9k'
p2424
I3
sS'\xc3\xa9j'
p2425
I427
sS'\xc3\xa9i'
p2426
I47
sS'vii'
p2427
I23
sS'vin'
p2428
I902
sS'\xc3\xa9n'
p2429
I854
sS'\xc3\xa9m'
p2430
I848
sS'\xc3\xa9l'
p2431
I945
sS'\xc3\xa9s'
p2432
I3109
sS'vis'
p2433
I539
sS'vip'
p2434
I6
sS'\xc3\xa9p'
p2435
I2476
sS'viv'
p2436
I388
sS'\xc3\xa9v'
p2437
I746
sS'vit'
p2438
I623
sS'\xc3\xa9t'
p2439
I6691
sS'\xc3\xa9z'
p2440
I4
sS'rkn'
p2441
I1
sS'ue\xc2'
p2442
I3
sS'oy\xc3'
p2443
I161
sS'giv'
p2444
I1
sS'eya'
p2445
I13
sS'ear'
p2446
I6
sS'ash'
p2447
I3
sS'eye'
p2448
I7
sS'eyd'
p2449
I2
sS'pup'
p2450
I7
sS'\xa9du'
p2451
I98
sS'\xa9dr'
p2452
I7
sS'eyl'
p2453
I15
sS'\xa9do'
p2454
I34
sS'udu'
p2455
I147
sS'pur'
p2456
I83
sS'\xa9di'
p2457
I206
sS'\xa9dd'
p2458
I1
sS'\xa9de'
p2459
I109
sS'\xa9da'
p2460
I111
sS'd\xc3\xb4'
p2461
I7
sS'ce\xc2'
p2462
I2
sS'\xa0be'
p2463
I1
sS'dez'
p2464
I115
sS'\xa0ba'
p2465
I3
sS'kla'
p2466
I1
sS'\xc3\xa7o'
p2467
I424
sS'\xc3\xa7a'
p2468
I1487
sS'bav'
p2469
I31
sS'der'
p2470
I1028
sS'des'
p2471
I8490
sS'det'
p2472
I49
sS'deu'
p2473
I1784
sS'dev'
p2474
I1353
sS'lks'
p2475
I1
sS'deh'
p2476
I109
sS'\xa9j\xc3'
p2477
I332
sS'del'
p2478
I199
sS'dem'
p2479
I1439
sS'den'
p2480
I1032
sS'ato'
p2481
I115
sS'dea'
p2482
I68
sS'deb'
p2483
I148
sS'dec'
p2484
I46
sS'\xc3\xa7u'
p2485
I224
sS'atl'
p2486
I63
sS'vu'
p2487
I160
sS'atm'
p2488
I63
sS'\x89bl'
p2489
I1
sS'akh'
p2490
I1
sS'\xabm\xc3'
p2491
I1
sS'atk'
p2492
I1
sS'yzo'
p2493
I1
sS'isu'
p2494
I2
sS'\xa8me'
p2495
I234
sS'mo\xc3'
p2496
I4
sS'ati'
p2497
I2058
sS'ohi'
p2498
I1
sS'\xa9d\xc3'
p2499
I59
sS'\xc3\xa9\xc3'
p2500
I43
sS'vi\xc3'
p2501
I98
sS'\xabpr'
p2502
I1
sS'\xb4ma'
p2503
I5
sS'ryg'
p2504
I7
sS'slo'
p2505
I3
sS'ryb'
p2506
I1
sS'isi'
p2507
I896
sS'rya'
p2508
I1
sS'oyo'
p2509
I63
sS'\xabpa'
p2510
I2
sS'\xabpe'
p2511
I1
sS'oyi'
p2512
I2
sS'iso'
p2513
I904
sS'oye'
p2514
I357
sS'oyd'
p2515
I1
sS'rys'
p2516
I7
sS'oya'
p2517
I674
sS'\xb4me'
p2518
I25
sS'ulm'
p2519
I1
sS'abd'
p2520
I6
sS'xub'
p2521
I2
sS'\xc3\xa7\xc3'
p2522
I17
sS'isl'
p2523
I8
sS'ruh'
p2524
I9
sS'\xbbri'
p2525
I7
sS'\xa9je'
p2526
I77
sS'xti'
p2527
I2
sS'fi'
p2528
I1
sS'xer'
p2529
I18
sS'\xa9jo'
p2530
I17
sS'a'
p2531
I1265
sS'lhe'
p2532
I120
sS'xte'
p2533
I40
sS'lha'
p2534
I2
sS'sli'
p2535
I4
sS'lho'
p2536
I60
sS'egr'
p2537
I124
sS'\xa0ho'
p2538
I2
sS'egi'
p2539
I11
sS'ego'
p2540
I2
sS'egm'
p2541
I8
sS'ega'
p2542
I850
sS'egg'
p2543
I1
sS'oat'
p2544
I5
sS'ito'
p2545
I36
sS'iz\xc3'
p2546
I1
sS'itk'
p2547
I1
sS'ith'
p2548
I13
sS'iti'
p2549
I526
sS'r\xc3\xb7'
p2550
I1
sS'uvr'
p2551
I787
sS'ite'
p2552
I2078
sS'lah'
p2553
I2
sS'ffr'
p2554
I449
sS'\xb4de'
p2555
I4
sS'ita'
p2556
I1354
sS'ffo'
p2557
I135
sS'uvi'
p2558
I76
sS'\xaeme'
p2559
I54
sS'itz'
p2560
I5
sS'ffi'
p2561
I275
sS'uvo'
p2562
I70
sS'uva'
p2563
I1321
sS'ffe'
p2564
I496
sS'itu'
p2565
I622
sS'itr'
p2566
I360
sS'uve'
p2567
I1827
sS'itp'
p2568
I1
sS'\x89pa'
p2569
I1
sS'li\xc2'
p2570
I3
sS'\x87\xc3\xa0'
p2571
I3
sS'ryp'
p2572
I3
sS'lz\xc3'
p2573
I1
sS'f\xc3\xbb'
p2574
I88
sS'\x89po'
p2575
I4
sS'\xa9e\xc2'
p2576
I3
sS'f\xc3\xa2'
p2577
I102
sS'uos'
p2578
I12
sS'\x89pu'
p2579
I1
sS'f\xc3\xa8'
p2580
I42
sS'f\xc3\xa9'
p2581
I402
sS'f\xc3\xaa'
p2582
I43
sS'baq'
p2583
I29
sS'f\xc3\xae'
p2584
I7
sS'\xbbts'
p2585
I3
sS'rwa'
p2586
I29
sS'g\xc3\xaa'
p2587
I115
sS'cec'
p2588
I16
sS'ceb'
p2589
I10
sS'cea'
p2590
I134
sS'uha'
p2591
I37
sS'cen'
p2592
I1059
sS'cem'
p2593
I157
sS'cel'
p2594
I768
sS'gua'
p2595
I83
sS'cei'
p2596
I31
sS'\xabbe'
p2597
I1
sS'oka'
p2598
I1
sS'cev'
p2599
I178
sS'ceu'
p2600
I171
sS'cet'
p2601
I1894
sS'ces'
p2602
I2142
sS'cer'
p2603
I571
sS'cep'
p2604
I502
sS'rux'
p2605
I4
sS'xyp'
p2606
I1
sS'cez'
p2607
I11
sS'cey'
p2608
I16
sS'sle'
p2609
I1
sS'ift'
p2610
I3
sS'ifu'
p2611
I4
sS'epu'
p2612
I379
sS'ifr'
p2613
I3
sS'ifs'
p2614
I63
sS'ynd'
p2615
I3
sS'yng'
p2616
I1
sS'o\xc3\xbb'
p2617
I292
sS'yna'
p2618
I16
sS'rio'
p2619
I221
sS'pam'
p2620
I2
sS'as\xc3'
p2621
I51
sS'ife'
p2622
I12
sS'iff'
p2623
I345
sS'ifa'
p2624
I3
sS's\xc2\xbb'
p2625
I7
sS'ifl'
p2626
I36
sS'ifo'
p2627
I35
sS'pow'
p2628
I2
sS'ifi'
p2629
I293
sS'mm\xc3'
p2630
I98
sS'\xc3\xb4t'
p2631
I778
sS'\xc3\xb4v'
p2632
I15
sS'\xc3\xb4p'
p2633
I22
sS'\xa0qu'
p2634
I65
sS'p'
p2635
I1
sS'\xa9m\xc3'
p2636
I41
sS'\xbbt\xc3'
p2637
I32
sS'\xc3\xb4d'
p2638
I16
sS'dib'
p2639
I7
sS'\xc3\xb4l'
p2640
I249
sS'\xc3\xb4m'
p2641
I30
sS'\xc3\xb4n'
p2642
I14
sS'gul'
p2643
I141
sS'iza'
p2644
I26
sS'ize'
p2645
I58
sS'gur'
p2646
I152
sS'\xb4d\xc3'
p2647
I2
sS'izi'
p2648
I2
sS'phl'
p2649
I4
sS'it\xc2'
p2650
I8
sS'it\xc3'
p2651
I1040
sS'izo'
p2652
I92
sS'fte'
p2653
I1
sS'\xaem\xc3'
p2654
I3
sS'fth'
p2655
I1
sS'ply'
p2656
I2
sS'uv\xc3'
p2657
I127
sS'ff\xc3'
p2658
I158
sS'iou'
p2659
I1
sS'pul'
p2660
I65
sS'bye'
p2661
I3
sS'asq'
p2662
I53
sS'asp'
p2663
I83
sS'pui'
p2664
I1579
sS'asu'
p2665
I18
sS'ast'
p2666
I325
sS'pud'
p2667
I9
sS'pue'
p2668
I10
sS'puf'
p2669
I2
sS'pug'
p2670
I22
sS'ydn'
p2671
I2
sS'vac'
p2672
I84
sS'pub'
p2673
I64
sS'puc'
p2674
I11
sS'asc'
p2675
I44
sS'baz'
p2676
I50
sS'mmo'
p2677
I236
sS'toy'
p2678
I53
sS'mmi'
p2679
I158
sS'puy'
p2680
I48
sS'ase'
p2681
I196
sS'rgu'
p2682
I129
sS'mme'
p2683
I5241
sS'asi'
p2684
I370
sS'sbi'
p2685
I3
sS'mma'
p2686
I226
sS'sbo'
p2687
I2
sS'asm'
p2688
I24
sS'pus'
p2689
I82
sS'\xa0cl'
p2690
I1
sS'\xa9ot'
p2691
I1
sS'phy'
p2692
I96
sS'evu'
p2693
I32
sS'oke'
p2694
I9
sS'xii'
p2695
I22
sS'iv\xc3'
p2696
I120
sS'toq'
p2697
I16
sS'cku'
p2698
I1
sS'\xb4ne'
p2699
I11
sS'li\xc3'
p2700
I270
sS'xil'
p2701
I11
sS'tow'
p2702
I1
sS'xio'
p2703
I45
sS'ioe'
p2704
I1
sS'jer'
p2705
I2
sS'jes'
p2706
I13
sS'\xa0ch'
p2707
I7
sS'\xa0co'
p2708
I15
sS'jet'
p2709
I634
sS'jeu'
p2710
I435
sS'rb\xc3'
p2711
I36
sS'\xa0ca'
p2712
I4
sS'ctr'
p2713
I133
sS'toh'
p2714
I1
sS'psa'
p2715
I1
sS'\xa0ce'
p2716
I13
sS'jec'
p2717
I27
sS'jea'
p2718
I112
sS'jed'
p2719
I2
sS'ued'
p2720
I4
sS'\xa0cr'
p2721
I1
sS'xit'
p2722
I4
sS'kos'
p2723
I1
sS'kor'
p2724
I29
sS'odr'
p2725
I3
sS'opy'
p2726
I2
sS'ex\xc3'
p2727
I44
sS'\xc2\xab\xc2'
p2728
I39
sS'ncr'
p2729
I73
sS'ncs'
p2730
I493
sS'nct'
p2731
I93
sS'ncu'
p2732
I94
sS'nch'
p2733
I966
sS'nci'
p2734
I381
sS'ofa'
p2735
I1
sS'ncl'
p2736
I308
sS'nco'
p2737
I1344
sS'nca'
p2738
I71
sS'nce'
p2739
I2078
sS'ste'
p2740
I1303
sS'b'
p2741
I5
sS'sta'
p2742
I1026
sS'stb'
p2743
I1
sS'stl'
p2744
I1
sS'stm'
p2745
I1
sS'sto'
p2746
I276
sS'sth'
p2747
I12
sS'sti'
p2748
I680
sS'd\xc3\xa2'
p2749
I16
sS'stu'
p2750
I92
sS'aav'
p2751
I1
sS'str'
p2752
I575
sS'sts'
p2753
I1
sS'rh\xc3'
p2754
I7
sS'sty'
p2755
I2
sS'\xa9it'
p2756
I11
sS'ot\xc3'
p2757
I63
sS'byz'
p2758
I1
sS'rry'
p2759
I2
sS'\xa9is'
p2760
I18
sS'\xa9ir'
p2761
I9
sS'ghe'
p2762
I3
sS'uez'
p2763
I39
sS'elo'
p2764
I326
sS'je\xc2'
p2765
I2
sS'je\xc3'
p2766
I2
sS'\xa9ia'
p2767
I1
sS'oda'
p2768
I24
sS'ccr'
p2769
I99
sS'ci'
p2770
I197
sS'r\xc2\xa0'
p2771
I7
sS'lid'
p2772
I93
sS'lie'
p2773
I1766
sS'lif'
p2774
I20
sS'lig'
p2775
I256
sS'lia'
p2776
I210
sS'lib'
p2777
I181
sS'lic'
p2778
I354
sS'lil'
p2779
I19
sS'lim'
p2780
I202
sS'lin'
p2781
I571
sS'lio'
p2782
I176
sS'efu'
p2783
I111
sS'rrr'
p2784
I1
sS'lit'
p2785
I650
sS'efi'
p2786
I2
sS'liv'
p2787
I170
sS'efl'
p2788
I56
sS'liq'
p2789
I346
sS'lir'
p2790
I143
sS'efo'
p2791
I136
sS'efa'
p2792
I18
sS'lix'
p2793
I1
sS'efe'
p2794
I48
sS'liz'
p2795
I2
sS'cch'
p2796
I3
sS'rhy'
p2797
I1
sS'\xc3\xa8b'
p2798
I68
sS'\xc3\xa8c'
p2799
I405
sS'\xc3\xa8d'
p2800
I63
sS'kae'
p2801
I1
sS'\xc3\xa8g'
p2802
I110
sS'kak'
p2803
I1
sS'kai'
p2804
I1
sS'\xc3\xa8l'
p2805
I127
sS'\xc3\xa8m'
p2806
I234
sS'\xc3\xa8n'
p2807
I209
sS'kal'
p2808
I2
sS'rhi'
p2809
I22
sS'\xc3\xa8q'
p2810
I30
sS'\xc3\xa8r'
p2811
I3598
sS'\xc3\xa8s'
p2812
I1783
sS'\xc3\xa8t'
p2813
I584
sS'\xc3\xa8v'
p2814
I320
sS'kat'
p2815
I6
sS'rha'
p2816
I8
sS'rhe'
p2817
I7
sS'exf'
p2818
I1
sS'tpe'
p2819
I5
sS'exe'
p2820
I94
sS'exc'
p2821
I188
sS'\xc2\xabb'
p2822
I2
sS'exa'
p2823
I172
sS'tpo'
p2824
I1
sS'\xaata'
p2825
I170
sS'\xc2\xabo'
p2826
I1
sS'\xc2\xabi'
p2827
I1
sS'exh'
p2828
I17
sS'exi'
p2829
I253
sS'\xc2\xabt'
p2830
I3
sS'\xc3\x88g'
p2831
I1
sS'ext'
p2832
I270
sS'exu'
p2833
I2
sS'\xc2\xabp'
p2834
I6
sS'exs'
p2835
I1
sS'exp'
p2836
I357
sS'exq'
p2837
I9
sS'nc\xc3'
p2838
I224
sS'rte'
p2839
I1480
sS'j\xc3\xb4'
p2840
I2
sS'ugi'
p2841
I89
sS'rta'
p2842
I948
sS'ugn'
p2843
I27
sS'h\xc3\xb4'
p2844
I105
sS'ugl'
p2845
I44
sS'rtm'
p2846
I25
sS'rtl'
p2847
I1
sS'rto'
p2848
I256
sS'cdo'
p2849
I4
sS'rti'
p2850
I1045
sS'rth'
p2851
I9
sS'uge'
p2852
I384
sS'cht'
p2853
I12
sS'rtu'
p2854
I195
sS'oje'
p2855
I58
sS'rts'
p2856
I266
sS'rtr'
p2857
I63
sS'h\xc3\xaa'
p2858
I16
sS'ugr'
p2859
I11
sS'h\xc3\xa8'
p2860
I258
sS'h\xc3\xa9'
p2861
I919
sS'rty'
p2862
I107
sS'ugu'
p2863
I108
sS'rtz'
p2864
I3
sS'ymp'
p2865
I15
sS'iez'
p2866
I173
sS'\xa0el'
p2867
I10
sS'h\xc3\x94'
p2868
I1
sS'\xablu'
p2869
I1
sS'ies'
p2870
I620
sS'ier'
p2871
I3062
sS'ieu'
p2872
I2896
sS'iet'
p2873
I248
sS'opa'
p2874
I17
sS'iei'
p2875
I212
sS'ar\xc3'
p2876
I339
sS'iem'
p2877
I58
sS'iel'
p2878
I185
sS'ien'
p2879
I8666
sS'ymi'
p2880
I1
sS'ieb'
p2881
I1
sS'ied'
p2882
I332
sS'ymo'
p2883
I3
sS'ymn'
p2884
I8
sS'hip'
p2885
I39
sS'hiq'
p2886
I31
sS'hir'
p2887
I96
sS'his'
p2888
I393
sS'hit'
p2889
I30
sS'hiu'
p2890
I2
sS'hiv'
p2891
I53
sS'hiz'
p2892
I1
sS'hia'
p2893
I12
sS'hib'
p2894
I9
sS'hic'
p2895
I35
sS'hid'
p2896
I9
sS'hie'
p2897
I194
sS'hif'
p2898
I115
sS'hig'
p2899
I31
sS'hil'
p2900
I22
sS'him'
p2901
I12
sS'hin'
p2902
I232
sS'hio'
p2903
I17
sS'\xaele'
p2904
I153
sS'oxy'
p2905
I22
sS'rfu'
p2906
I33
sS'cru'
p2907
I195
sS'rbl'
p2908
I14
sS'rfa'
p2909
I256
sS'cra'
p2910
I455
sS'\xabsa'
p2911
I1
sS'rff'
p2912
I10
sS'rfe'
p2913
I11
sS'cre'
p2914
I423
sS'x'
p2915
I10
sS'rfi'
p2916
I14
sS'cri'
p2917
I844
sS'rfo'
p2918
I95
sS'cro'
p2919
I627
sS'rfl'
p2920
I1
sS'arp'
p2921
I149
sS'arq'
p2922
I245
sS'seu'
p2923
I1197
sS'ars'
p2924
I105
sS'ses'
p2925
I3134
sS'ser'
p2926
I2541
sS'arv'
p2927
I25
sS'sep'
p2928
I179
sS'sez'
p2929
I338
sS'sey'
p2930
I19
sS'sex'
p2931
I15
sS'ara'
p2932
I968
sS'arb'
p2933
I289
sS'arc'
p2934
I1011
sS'ard'
p2935
I2098
sS'are'
p2936
I689
sS'arf'
p2937
I194
sS'arg'
p2938
I746
sS'seo'
p2939
I46
sS'ari'
p2940
I1026
sS'sem'
p2941
I1102
sS'sel'
p2942
I348
sS'arl'
p2943
I484
sS'arm'
p2944
I502
sS'sei'
p2945
I652
sS'aro'
p2946
I435
sS'\xa0ou'
p2947
I37
sS'hob'
p2948
I5
sS'rt\xc3'
p2949
I330
sS'ug\xc3'
p2950
I51
sS'oza'
p2951
I3
sS'\xc2\xa0\xc3'
p2952
I48
sS'\xabp\xc3'
p2953
I1
sS'ulf'
p2954
I32
sS'\xc3\x87\xc3'
p2955
I3
sS'ozo'
p2956
I1
sS'nj\xc3'
p2957
I2
sS'\xa9vo'
p2958
I138
sS'web'
p2959
I1
sS'aar'
p2960
I9
sS'roe'
p2961
I6
sS'cr\xc3'
p2962
I371
sS'\x89gy'
p2963
I9
sS'\xa0ve'
p2964
I10
sS'iki'
p2965
I2
sS'yda'
p2966
I1
sS'iko'
p2967
I21
sS'lep'
p2968
I2
sS'c'
p2969
I1708
sS'leq'
p2970
I61
sS'\xa0sa'
p2971
I15
sS'\xa8gu'
p2972
I10
sS'\xa8gr'
p2973
I5
sS'yph'
p2974
I6
sS'\xa8gn'
p2975
I22
sS'\xa8gl'
p2976
I12
sS'hi\xc3'
p2977
I5
sS'rud'
p2978
I113
sS'\xa8ge'
p2979
I61
sS'hko'
p2980
I1
sS'\xbbrs'
p2981
I4
sS'\x89ga'
p2982
I1
sS'tuy'
p2983
I19
sS'rad'
p2984
I177
sS'\xa7ar'
p2985
I17
sS'\xa0vo'
p2986
I75
sS'oqs'
p2987
I2
sS'wel'
p2988
I2
sS'dui'
p2989
I340
sS'duk'
p2990
I1
sS'dul'
p2991
I64
sS'dum'
p2992
I30
sS'dun'
p2993
I6
sS'pu'
p2994
I132
sS'dub'
p2995
I1
sS'xas'
p2996
I31
sS'xat'
p2997
I3
sS'due'
p2998
I194
sS'dug'
p2999
I16
sS'geo'
p3000
I132
sS'lby'
p3001
I1
sS'\xa0vr'
p3002
I4
sS'xal'
p3003
I5
sS'xam'
p3004
I69
sS'xan'
p3005
I97
sS'dup'
p3006
I8
sS'duq'
p3007
I18
sS'dur'
p3008
I200
sS'dus'
p3009
I141
sS'dut'
p3010
I100
sS'ri\xc3'
p3011
I651
sS'duv'
p3012
I13
sS'xag'
p3013
I23
sS'\xa0ru'
p3014
I1
sS'nri'
p3015
I90
sS'nrh'
p3016
I4
sS'nro'
p3017
I26
sS'gaz'
p3018
I73
sS'gay'
p3019
I91
sS'\xbblu'
p3020
I5
sS'gav'
p3021
I4
sS'gau'
p3022
I214
sS'gat'
p3023
I125
sS'gas'
p3024
I240
sS'gar'
p3025
I1479
sS'nre'
p3026
I102
sS'gap'
p3027
I2
sS'\xa0re'
p3028
I5
sS'gan'
p3029
I217
sS'gam'
p3030
I58
sS'gal'
p3031
I324
sS'\xa0ra'
p3032
I2
sS'gai'
p3033
I216
sS'gag'
p3034
I320
sS'\xa0ro'
p3035
I2
sS'gad'
p3036
I7
sS'\xa0ri'
p3037
I4
sS'\xa0rh'
p3038
I1
sS'lba'
p3039
I5
sS'fut'
p3040
I519
sS'fur'
p3041
I239
sS'fus'
p3042
I244
sS'mle'
p3043
I1
sS'us\xc2'
p3044
I9
sS'adj'
p3045
I3
sS'cts'
p3046
I16
sS'mll'
p3047
I20
sS'fuy'
p3048
I30
sS'fug'
p3049
I33
sS'fue'
p3050
I1
sS'fub'
p3051
I1
sS'fuc'
p3052
I15
sS'fun'
p3053
I13
sS'lbe'
p3054
I64
sS'ful'
p3055
I6
sS'fum'
p3056
I136
sS'fui'
p3057
I64
sS'voe'
p3058
I3
sS'vog'
p3059
I3
sS'riz'
p3060
I99
sS'rix'
p3061
I66
sS'voc'
p3062
I10
sS'riv'
p3063
I543
sS'vom'
p3064
I10
sS'rit'
p3065
I1177
sS'riu'
p3066
I7
sS'rir'
p3067
I626
sS'ris'
p3068
I1810
sS'rip'
p3069
I97
sS'riq'
p3070
I268
sS'vot'
p3071
I247
sS'vou'
p3072
I3237
sS'ril'
p3073
I409
sS'rim'
p3074
I146
sS'rij'
p3075
I1
sS'voq'
p3076
I34
sS'vor'
p3077
I81
sS'vos'
p3078
I111
sS'rif'
p3079
I88
sS'rig'
p3080
I200
sS'rid'
p3081
I174
sS'rie'
p3082
I2235
sS'rib'
p3083
I196
sS'voy'
p3084
I641
sS'ria'
p3085
I807
sS'\xa9in'
p3086
I3
sS'boi'
p3087
I225
sS'ewc'
p3088
I1
sS'saa'
p3089
I1
sS'ewa'
p3090
I13
sS'lmi'
p3091
I7
sS'ewe'
p3092
I2
sS'mos'
p3093
I83
sS'ufl'
p3094
I9
sS'lbo'
p3095
I2
sS'\xb4tr'
p3096
I21
sS'amc'
p3097
I1
sS'ohn'
p3098
I2
sS'bom'
p3099
I48
sS'syc'
p3100
I1
sS'dga'
p3101
I2
sS'a\xc3\xa7'
p3102
I278
sS'\xa2fl'
p3103
I1
sS'r\xc3\xbb'
p3104
I117
sS'r\xc3\xb4'
p3105
I198
sS'ame'
p3106
I1401
sS'a\xc3\xa9'
p3107
I14
sS'l\xc3\xbb'
p3108
I18
sS'a\xc3\xaf'
p3109
I49
sS'syn'
p3110
I8
sS'sym'
p3111
I24
sS'syl'
p3112
I2
sS'sys'
p3113
I17
sS'syr'
p3114
I9
sS'r\xc3\xae'
p3115
I11
sS'syp'
p3116
I1
sS'r\xc3\xa8'
p3117
I1831
sS'r\xc3\xa9'
p3118
I5069
sS'r\xc3\xaa'
p3119
I670
sS'a\xc3\xb4'
p3120
I1
sS'r\xc3\xa7'
p3121
I466
sS'r\xc3\xa2'
p3122
I159
sS'\xa0do'
p3123
I3
sS't\xc2\xbb'
p3124
I4
sS'boc'
p3125
I246
sS'\xa0di'
p3126
I37
sS'kni'
p3127
I1
sS'nr\xc3'
p3128
I1
sS'\xaach'
p3129
I263
sS'\xa0de'
p3130
I18
sS'kne'
p3131
I1
sS'\xb4ti'
p3132
I28
sS'\xa0da'
p3133
I9
sS'moh'
p3134
I4
sS'r\xc3\x88'
p3135
I1
sS'r\xc3\x89'
p3136
I3
sS'y'
p3137
I1081
sS't\xc2\xa0'
p3138
I31
sS'\xa0du'
p3139
I4
sS'ga\xc3'
p3140
I8
sS'efr'
p3141
I23
sS'lda'
p3142
I16
sS'efs'
p3143
I29
sS'lde'
p3144
I12
sS'wie'
p3145
I1
sS'eer'
p3146
I3
sS'\xa9be'
p3147
I4
sS'ahe'
p3148
I1
sS'\xa0h\xc3'
p3149
I1
sS'ipa'
p3150
I116
sS'ep\xc3'
p3151
I6
sS'amp'
p3152
I246
sS'ad'
p3153
I1
sS'\xb4ta'
p3154
I17
sS'pe\xc3'
p3155
I1
sS'cuv'
p3156
I20
sS'rgs'
p3157
I13
sS'cus'
p3158
I160
sS'cur'
p3159
I264
sS'rwi'
p3160
I3
sS'cup'
p3161
I209
sS'rgy'
p3162
I1
sS'xho'
p3163
I1
sS'u\xc3\xa7'
p3164
I8
sS'rga'
p3165
I53
sS'cue'
p3166
I107
sS'cud'
p3167
I2
sS'cuc'
p3168
I1
sS'cub'
p3169
I17
sS'cua'
p3170
I2
sS'win'
p3171
I3
sS'u\xc3\xaf'
p3172
I11
sS'cun'
p3173
I339
sS'cum'
p3174
I25
sS'cul'
p3175
I567
sS'u\xc3\xab'
p3176
I21
sS'u\xc3\xaa'
p3177
I22
sS'u\xc3\xa9'
p3178
I643
sS'u\xc3\xa8'
p3179
I128
sS'bin'
p3180
I267
sS'bil'
p3181
I347
sS'bim'
p3182
I6
sS'bij'
p3183
I53
sS'bif'
p3184
I7
sS'big'
p3185
I11
sS'bid'
p3186
I2
sS'lis'
p3187
I634
sS'bib'
p3188
I89
sS'bic'
p3189
I25
sS'gub'
p3190
I5
sS'bia'
p3191
I15
sS'ror'
p3192
I12
sS'\xa9hi'
p3193
I5
sS'biz'
p3194
I11
sS'yl\xc3'
p3195
I1
sS'\x88re'
p3196
I7
sS'bit'
p3197
I312
sS'af\xc3'
p3198
I89
sS'bir'
p3199
I13
sS'bis'
p3200
I29
sS'bip'
p3201
I6
sS'biq'
p3202
I6
sS'\xa9ha'
p3203
I6
sS'ypi'
p3204
I10
sS'd'
p3205
I6397
sS'eet'
p3206
I4
sS'\xabjo'
p3207
I1
sS'ypo'
p3208
I23
sS'eel'
p3209
I3
sS'een'
p3210
I3
sS'eff'
p3211
I415
sS'elt'
p3212
I13
sS'\xc2\xa0q'
p3213
I65
sS'\xa2il'
p3214
I17
sS'sgo'
p3215
I3
sS'tym'
p3216
I1
sS'\xc2\xa0s'
p3217
I47
sS'rot'
p3218
I324
sS'nck'
p3219
I1
sS'\xaech'
p3220
I53
sS'ija'
p3221
I34
sS'rg\xc3'
p3222
I112
sS'\xc2\xa0u'
p3223
I9
sS'ynq'
p3224
I1
sS'rox'
p3225
I1
sS'\xc3\xa7'
p3226
I1
sS'ijo'
p3227
I27
sS'ld\xc3'
p3228
I1
sS'ib\xc3'
p3229
I8
sS'st\xc2'
p3230
I4
sS'pez'
p3231
I5
sS'pet'
p3232
I969
sS'peu'
p3233
I1309
sS'st\xc3'
p3234
I246
sS'pep'
p3235
I1
sS'\x89vi'
p3236
I11
sS'per'
p3237
I1636
sS'pes'
p3238
I353
sS'pel'
p3239
I437
sS'pem'
p3240
I19
sS'pen'
p3241
I1438
sS'pei'
p3242
I274
sS'ped'
p3243
I1
sS'\xc3\x89q'
p3244
I8
sS'pea'
p3245
I853
sS'pec'
p3246
I208
sS'ufi'
p3247
I2
sS'ufe'
p3248
I10
sS'rui'
p3249
I399
sS'aho'
p3250
I3
sS'ruo'
p3251
I1
sS'rul'
p3252
I1
sS'rum'
p3253
I82
sS'rub'
p3254
I47
sS'ruc'
p3255
I73
sS'rov'
p3256
I104
sS'rua'
p3257
I7
sS'ruf'
p3258
I3
sS'rug'
p3259
I15
sS'oeu'
p3260
I564
sS'rue'
p3261
I632
sS'\xb4la'
p3262
I4
sS'bu'
p3263
I22
sS'oei'
p3264
I163
sS'ayn'
p3265
I1
sS'kam'
p3266
I8
sS'zzi'
p3267
I1
sS'oel'
p3268
I8
sS'rur'
p3269
I101
sS'rus'
p3270
I239
sS'ufr'
p3271
I41
sS'ruq'
p3272
I4
sS'rut'
p3273
I303
sS'fec'
p3274
I199
sS'sub'
p3275
I97
sS'idy'
p3276
I1
sS'idu'
p3277
I12
sS'idr'
p3278
I2
sS'ids'
p3279
I44
sS'n\xc3\xbb'
p3280
I2
sS'idn'
p3281
I1
sS'ido'
p3282
I81
sS'\xc2\xa0b'
p3283
I17
sS'idi'
p3284
I309
sS'ylo'
p3285
I2
sS'yll'
p3286
I9
sS'ide'
p3287
I953
sS'ida'
p3288
I180
sS'nsh'
p3289
I3
sS'nsi'
p3290
I1370
sS'nsl'
p3291
I2
sS'nsm'
p3292
I10
sS'nsn'
p3293
I1
sS'nso'
p3294
I173
sS'lxs'
p3295
I1
sS'nsa'
p3296
I162
sS'nsb'
p3297
I1
sS'nsc'
p3298
I49
sS'nse'
p3299
I1071
sS'nsf'
p3300
I16
sS'\xa0su'
p3301
I3
sS'vad'
p3302
I12
sS'\xa0si'
p3303
I10
sS'gr\xc3'
p3304
I364
sS't\xc3\x88'
p3305
I1
sS't\xc3\x89'
p3306
I2
sS'nsp'
p3307
I120
sS'fei'
p3308
I14
sS'nst'
p3309
I583
sS'nsu'
p3310
I192
sS'nsv'
p3311
I5
sS'\xa0se'
p3312
I3
sS'xpi'
p3313
I9
sS'ixi'
p3314
I50
sS'xpo'
p3315
I36
sS'\xa2ge'
p3316
I30
sS'xpl'
p3317
I202
sS'mko'
p3318
I9
sS'typ'
p3319
I16
sS't\xc3\xb4'
p3320
I307
sS'ixa'
p3321
I105
sS'fet'
p3322
I210
sS'\xb4pi'
p3323
I22
sS'ixe'
p3324
I64
sS't\xc3\xae'
p3325
I7
sS'feu'
p3326
I241
sS't\xc3\xaa'
p3327
I628
sS'\xc2\xa0o'
p3328
I99
sS't\xc3\xa8'
p3329
I292
sS't\xc3\xa9'
p3330
I3744
sS'uss'
p3331
I1274
sS'tys'
p3332
I4
sS'qua'
p3333
I2489
sS'xpu'
p3334
I10
sS'chu'
p3335
I97
sS'aqu'
p3336
I814
sS'yru'
p3337
I1
sS'\xa0\xc2\xa0'
p3338
I265
sS'ma\xc2'
p3339
I1
sS'zia'
p3340
I1
sS'ag\xc3'
p3341
I174
sS'\xc2\xabf'
p3342
I2
sS'yab'
p3343
I20
sS'sda'
p3344
I11
sS'sun'
p3345
I1
sS'\xa0\xc2\xbb'
p3346
I38
sS'\xc2\xaba'
p3347
I1
sS'cic'
p3348
I5
sS'cib'
p3349
I13
sS'cia'
p3350
I117
sS'uta'
p3351
I471
sS'cig'
p3352
I25
sS'cif'
p3353
I73
sS'cie'
p3354
I762
sS'ute'
p3355
I2103
sS'utj'
p3356
I1
sS'uth'
p3357
I65
sS'uti'
p3358
I1361
sS'cio'
p3359
I8
sS'uto'
p3360
I342
sS'cim'
p3361
I71
sS'cil'
p3362
I159
sS'utr'
p3363
I1116
sS'uts'
p3364
I74
sS'ciq'
p3365
I1
sS'un'
p3366
I7075
sS'civ'
p3367
I18
sS'utt'
p3368
I244
sS'cit'
p3369
I210
sS'z'
p3370
I2
sS'lva'
p3371
I3
sS'ad\xc3'
p3372
I29
sS'lyt'
p3373
I1
sS'v'
p3374
I18
sS'lyp'
p3375
I27
sS'lyr'
p3376
I8
sS'lys'
p3377
I27
sS'xp\xc3'
p3378
I50
sS'ix\xc3'
p3379
I37
sS'rhu'
p3380
I24
sS'lpr'
p3381
I7
sS'lyd'
p3382
I2
sS'\xa9id'
p3383
I1
sS'\xc2\xabj'
p3384
I4
sS'lyc'
p3385
I4
sS'lyn'
p3386
I4
sS'lyo'
p3387
I14
sS'nab'
p3388
I144
sS'nac'
p3389
I82
sS'\xa0en'
p3390
I26
sS'naa'
p3391
I12
sS'\xa0eh'
p3392
I30
sS'nag'
p3393
I349
sS'nad'
p3394
I311
sS'ns\xc2'
p3395
I3
sS'nai'
p3396
I2821
sS'nan'
p3397
I1129
sS'\xc2\xabv'
p3398
I4
sS'nal'
p3399
I230
sS'nam'
p3400
I13
sS'nar'
p3401
I128
sS'nas'
p3402
I24
sS'nap'
p3403
I77
sS'gre'
p3404
I263
sS'nav'
p3405
I224
sS'nat'
p3406
I423
sS'nau'
p3407
I753
sS'zam'
p3408
I2
sS'gro'
p3409
I519
sS'nax'
p3410
I85
sS'nay'
p3411
I3
sS'gri'
p3412
I278
sS'ci\xc3'
p3413
I105
sS'ut\xc3'
p3414
I188
sS'\xc2\xabr'
p3415
I3
sS'c\xc3\xbb'
p3416
I1
sS'ovi'
p3417
I65
sS'c\xc3\xb4'
p3418
I384
sS'aen'
p3419
I2
sS'vov'
p3420
I1
sS'c\xc3\xa9'
p3421
I904
sS'c\xc3\xa8'
p3422
I158
sS'dos'
p3423
I149
sS'tua'
p3424
I106
sS'dop'
p3425
I6
sS'c\xc3\xa2'
p3426
I23
sS'ago'
p3427
I102
sS'agn'
p3428
I645
sS'agm'
p3429
I3
sS'\xafad'
p3430
I1
sS'agi'
p3431
I280
sS'agh'
p3432
I1
sS'dve'
p3433
I10
sS'age'
p3434
I2153
sS'sve'
p3435
I6
sS'aga'
p3436
I278
sS'\xc2\xabm'
p3437
I4
sS'c\xc3\x89'
p3438
I1
sS'lpa'
p3439
I4
sS'agu'
p3440
I192
sS'ags'
p3441
I1
sS'agr'
p3442
I111
sS'kip'
p3443
I1
sS'eda'
p3444
I67
sS'euz'
p3445
I3
sS'kul'
p3446
I1
sS'edd'
p3447
I3
sS'ede'
p3448
I68
sS'\xa9ou'
p3449
I3
sS'edi'
p3450
I101
sS'\xa9os'
p3451
I3
sS'edo'
p3452
I64
sS'\xa0am'
p3453
I1
sS'edr'
p3454
I25
sS'eds'
p3455
I232
sS'\xa9om'
p3456
I2
sS'\xa9ol'
p3457
I21
sS'edw'
p3458
I6
sS'fas'
p3459
I20
sS'edu'
p3460
I3
sS'edz'
p3461
I1
sS'ugo'
p3462
I24
sS'\xa9od'
p3463
I2
sS'ass'
p3464
I2848
sS'lkl'
p3465
I1
sS'ugm'
p3466
I45
sS'esf'
p3467
I104
sS'er\xc2'
p3468
I1
sS'lke'
p3469
I1
sS'rr\xc3'
p3470
I440
sS'\xa0ar'
p3471
I2
sS'lka'
p3472
I3
sS'\x89li'
p3473
I3
sS'hle'
p3474
I4
sS'ddo'
p3475
I1
sS'od\xc3'
p3476
I65
sS'uga'
p3477
I8
sS'ulz'
p3478
I1
sS'\xc3\xaan'
p3479
I130
sS'\xc3\xaal'
p3480
I126
sS'\xc3\xaam'
p3481
I1181
sS'\xc3\xaac'
p3482
I263
sS'\xc3\x89a'
p3483
I1
sS'irl'
p3484
I18
sS'tyd'
p3485
I1
sS'rd\xc3'
p3486
I146
sS'ct\xc3'
p3487
I31
sS'\xc3\x89g'
p3488
I11
sS'\xc3\xaap'
p3489
I6
sS'\xc3\xaaq'
p3490
I12
sS'\xc3\xaav'
p3491
I121
sS'\xc3\xaat'
p3492
I2847
sS'tri'
p3493
I754
sS'evi'
p3494
I412
sS'le\xc2'
p3495
I6
sS'le\xc3'
p3496
I14
sS'tro'
p3497
I2700
sS'evo'
p3498
I138
sS'tra'
p3499
I2564
sS'eva'
p3500
I1587
sS'\xc3\x89d'
p3501
I1
sS'tre'
p3502
I6656
sS'eve'
p3503
I754
sS'u\xc2\xbb'
p3504
I2
sS'try'
p3505
I3
sS'thr'
p3506
I8
sS'u\xc2\xa0'
p3507
I24
sS'uls'
p3508
I109
sS'evr'
p3509
I48
sS'tmo'
p3510
I62
sS'tru'
p3511
I162
sS'caq'
p3512
I2
sS'\xc3\x89v'
p3513
I11
sS'rro'
p3514
I265
sS'uel'
p3515
I1482
sS'uen'
p3516
I151
sS'uei'
p3517
I128
sS'\xb4n\xc3'
p3518
I2
sS'rri'
p3519
I1079
sS'rrh'
p3520
I8
sS'yrn'
p3521
I5
sS'ulv'
p3522
I1
sS'rre'
p3523
I1040
sS'uef'
p3524
I18
sS'odu'
p3525
I173
sS'rra'
p3526
I716
sS'ueb'
p3527
I17
sS'odi'
p3528
I145
sS'\xa7\xc3\xa2'
p3529
I3
sS'odl'
p3530
I1
sS'\xc3\x89m'
p3531
I7
sS'go'
p3532
I2
sS'odo'
p3533
I32
sS'ueu'
p3534
I530
sS'uet'
p3535
I503
sS'rru'
p3536
I57
sS'\xaaqu'
p3537
I12
sS'ode'
p3538
I287
sS'ues'
p3539
I1766
sS'uer'
p3540
I599
sS'\x89pi'
p3541
I1
sS'dch'
p3542
I1
sS'iby'
p3543
I3
sS'\xc2\xabc'
p3544
I3
sS'h\xc3\xae'
p3545
I1
sS'bdo'
p3546
I4
sS'bdi'
p3547
I7
sS'cai'
p3548
I230
sS'yct'
p3549
I3
sS'\xa2qu'
p3550
I3
sS'ycl'
p3551
I11
sS'rho'
p3552
I9
sS'uln'
p3553
I1
sS'\xc3\x8el'
p3554
I1
sS'can'
p3555
I673
sS'iny'
p3556
I1
sS'lea'
p3557
I39
sS'leb'
p3558
I5
sS'lec'
p3559
I168
sS'led'
p3560
I4
sS'cam'
p3561
I213
sS'lef'
p3562
I21
sS'leg'
p3563
I9
sS'leh'
p3564
I3
sS'lei'
p3565
I597
sS'tr\xc3'
p3566
I1067
sS'ev\xc3'
p3567
I237
sS'\xa2ma'
p3568
I5
sS'lem'
p3569
I1266
sS'len'
p3570
I857
sS'leo'
p3571
I2
sS'\xaan\xc3'
p3572
I32
sS'cac'
p3573
I176
sS'ler'
p3574
I1223
sS'les'
p3575
I13307
sS'let'
p3576
I653
sS'leu'
p3577
I3015
sS'lev'
p3578
I674
sS'cab'
p3579
I205
sS'lex'
p3580
I51
sS'ley'
p3581
I11
sS'lez'
p3582
I203
sS'\x89gl'
p3583
I1
sS'\xaava'
p3584
I43
sS'rdu'
p3585
I224
sS'ctu'
p3586
I97
sS'rdq'
p3587
I1
sS'rds'
p3588
I298
sS'rdr'
p3589
I222
sS'cag'
p3590
I47
sS'\xabje'
p3591
I2
sS'cty'
p3592
I3
sS'ibu'
p3593
I73
sS'rde'
p3594
I527
sS'cte'
p3595
I208
sS'rda'
p3596
I694
sS'cta'
p3597
I139
sS'xvi'
p3598
I17
sS'rdo'
p3599
I251
sS'cad'
p3600
I138
sS'rdi'
p3601
I365
sS'cti'
p3602
I605
sS'\xa0so'
p3603
I13
sS'wic'
p3604
I8
sS'apr'
p3605
I589
sS'aps'
p3606
I44
sS'app'
p3607
I1569
sS'sgr'
p3608
I1
sS'apt'
p3609
I23
sS'apu'
p3610
I18
sS'si\xc3'
p3611
I169
sS'aph'
p3612
I65
sS'api'
p3613
I1154
sS'apo'
p3614
I95
sS'apl'
p3615
I83
sS'\xafve'
p3616
I5
sS'wil'
p3617
I1
sS'tap'
p3618
I197
sS'apa'
p3619
I213
sS'ape'
p3620
I634
sS'cha'
p3621
I4103
sS'use'
p3622
I1604
sS'usc'
p3623
I134
sS'che'
p3624
I4779
sS'usa'
p3625
I317
sS'fen'
p3626
I315
sS'chi'
p3627
I844
sS'fel'
p3628
I3
sS'fem'
p3629
I702
sS'chl'
p3630
I6
sS'usi'
p3631
I334
sS'cho'
p3632
I798
sS'zig'
p3633
I18
sS'chr'
p3634
I36
sS'ust'
p3635
I449
sS'zib'
p3636
I2
sS'fes'
p3637
I249
sS'usq'
p3638
I616
sS'usp'
p3639
I44
sS'zin'
p3640
I126
sS'chy'
p3641
I14
sS'xc\xc3'
p3642
I10
sS'se\xc2'
p3643
I2
sS'mec'
p3644
I2
sS'hac'
p3645
I138
sS'xci'
p3646
I24
sS'ove'
p3647
I126
sS'pab'
p3648
I45
sS'iie'
p3649
I1
sS'guy'
p3650
I1
sS'gza'
p3651
I2
sS'iii'
p3652
I34
sS'xcr'
p3653
I1
sS'h\xc3\x89'
p3654
I1
sS'm\xc3\xa9'
p3655
I1439
sS'ocu'
p3656
I27
sS'nu\xc3'
p3657
I31
sS'c\xc2\xb0'
p3658
I1
sS'ric'
p3659
I400
sS'c\xc2\xbb'
p3660
I1
sS'ief'
p3661
I3
sS'\xa0t\xc3'
p3662
I2
sS'aci'
p3663
I246
sS'ebr'
p3664
I4
sS'tat'
p3665
I289
sS'tau'
p3666
I82
sS'tav'
p3667
I16
sS'ch\xc3'
p3668
I746
sS'us\xc3'
p3669
I144
sS'taq'
p3670
I87
sS'tar'
p3671
I272
sS'tas'
p3672
I225
sS'k\xc3\xa9'
p3673
I1
sS'xcu'
p3674
I59
sS'tax'
p3675
I1
sS'xcl'
p3676
I20
sS'tad'
p3677
I13
sS'taf'
p3678
I6
sS'tag'
p3679
I365
sS'zi\xc3'
p3680
I5
sS'tab'
p3681
I673
sS'tac'
p3682
I369
sS'tal'
p3683
I548
sS'tam'
p3684
I53
sS'tan'
p3685
I1971
sS'tai'
p3686
I7957
sS'bow'
p3687
I3
sS'sis'
p3688
I325
sS'sir'
p3689
I335
sS'siq'
p3690
I50
sS'sip'
p3691
I15
sS'siv'
p3692
I69
sS'siu'
p3693
I4
sS'sit'
p3694
I653
sS'afe'
p3695
I19
sS'aff'
p3696
I425
sS'six'
p3697
I245
sS'afa'
p3698
I37
sS'sic'
p3699
I18
sS'sib'
p3700
I266
sS'sia'
p3701
I26
sS'dwa'
p3702
I7
sS'sig'
p3703
I207
sS'sif'
p3704
I89
sS'sie'
p3705
I1258
sS'sid'
p3706
I95
sS'hag'
p3707
I50
sS'xce'
p3708
I71
sS'sio'
p3709
I648
sS'sin'
p3710
I685
sS'sim'
p3711
I193
sS'sil'
p3712
I304
sS'afl'
p3713
I5
sS'npo'
p3714
I8
sS'\xa9pi'
p3715
I112
sS'\xa0tu'
p3716
I19
sS'yrr'
p3717
I6
sS'npa'
p3718
I1
sS'\xa0tr'
p3719
I23
sS'\xa0to'
p3720
I10
sS'aod'
p3721
I1
sS'afo'
p3722
I72
sS'\xa0ti'
p3723
I24
sS'\xa0te'
p3724
I4
sS'\xa0ha'
p3725
I1
sS'\xa0ta'
p3726
I4
sS'afi'
p3727
I74
sS'm\xc3\xb4'
p3728
I4
sS'u\xc3\xa2'
p3729
I29
sS'exo'
p3730
I7
sS'ndw'
p3731
I5
sS'ovo'
p3732
I23
sS'xqu'
p3733
I51
sS'\xc3\xa8p'
p3734
I4
sS'TOTAL_WEIGHT'
p3735
F1479487.0
sS'own'
p3736
I3
sS're\xc2'
p3737
I9
sS're\xc3'
p3738
I54
sS'\xabt\xc3'
p3739
I1
sS'eum'
p3740
I1
sS'eul'
p3741
I899
sS'le'
p3742
I11083
sS'eui'
p3743
I176
sS'euh'
p3744
I1
sS'la'
p3745
I13116
sS'ou\xc3'
p3746
I164
sS'eud'
p3747
I26
sS'eug'
p3748
I44
sS'euf'
p3749
I193
sS'byr'
p3750
I3
sS'bys'
p3751
I8
sS'euc'
p3752
I1
sS'eub'
p3753
I85
sS'lu'
p3754
I10
sS'eux'
p3755
I3868
sS'cto'
p3756
I85
sS'eut'
p3757
I750
sS'euv'
p3758
I329
sS'hl\xc3'
p3759
I1
sS'eup'
p3760
I70
sS'eus'
p3761
I1262
sS'eur'
p3762
I7514
sS'dad'
p3763
I23
sS'eme'
p3764
I4188
sS'dag'
p3765
I39
sS'dab'
p3766
I53
sS'dac'
p3767
I31
sS'dal'
p3768
I35
sS'dam'
p3769
I1024
sS'dan'
p3770
I5178
sS'dah'
p3771
I4
sS'dai'
p3772
I1413
sS'lt\xc3'
p3773
I50
sS'dau'
p3774
I19
sS'dav'
p3775
I170
sS'oxo'
p3776
I1
sS'dap'
p3777
I5
sS'\xa9h\xc3'
p3778
I1
sS'dar'
p3779
I24
sS'ap\xc3'
p3780
I34
sS'ema'
p3781
I988
sS'day'
p3782
I2
sS'\xc3\xbbt'
p3783
I541
sS'nfe'
p3784
I187
sS'dwi'
p3785
I5
sS'ec\xc3'
p3786
I3
sS'u\xc3\xae'
p3787
I28
sS'nfa'
p3788
I366
sS'\xc3\xbbr'
p3789
I167
sS'nfo'
p3790
I164
sS'nfl'
p3791
I155
sS'nfi'
p3792
I591
sS'\xa0fa'
p3793
I9
sS'qu\xc3'
p3794
I291
sS'asg'
p3795
I3
sS'afr'
p3796
I25
sS'\xc3\xbbc'
p3797
I6
sS'\xc3\xbbm'
p3798
I42
sS'\xc3\xbbl'
p3799
I177
sS'\xc3\xbbn'
p3800
I2
sS'\xa0fl'
p3801
I1
sS'\xa0fo'
p3802
I2
sS'\xa9n\xc3'
p3803
I237
sS'lfe'
p3804
I39
sS'ouj'
p3805
I735
sS'oui'
p3806
I938
sS'ouh'
p3807
I37
sS'ouo'
p3808
I1
sS'oun'
p3809
I4
sS'oum'
p3810
I37
sS'oul'
p3811
I1925
sS'ouc'
p3812
I996
sS'oub'
p3813
I310
sS'oua'
p3814
I199
sS'oug'
p3815
I396
sS'ouf'
p3816
I489
sS'oue'
p3817
I410
sS'oud'
p3818
I252
sS'hlo'
p3819
I6
sS'ouz'
p3820
I100
sS'usk'
p3821
I1
sS'oux'
p3822
I168
sS'\x89fa'
p3823
I1
sS'hli'
p3824
I1
sS'ous'
p3825
I6759
sS'our'
p3826
I8522
sS'ouq'
p3827
I42
sS'oup'
p3828
I1855
sS'ouv'
p3829
I3352
sS'out'
p3830
I4606
sS'rez'
p3831
I281
sS'emu'
p3832
I74
sS'rex'
p3833
I8
sS'\xa0\xc3\x89'
p3834
I14
sS'yma'
p3835
I1
sS'rer'
p3836
I767
sS'res'
p3837
I6022
sS'rep'
p3838
I876
sS'req'
p3839
I39
sS'rev'
p3840
I586
sS'\xa7oi'
p3841
I30
sS'ret'
p3842
I1294
sS'reu'
p3843
I696
sS'rej'
p3844
I66
sS'reh'
p3845
I1
sS'rei'
p3846
I525
sS'ren'
p3847
I3454
sS'\xabti'
p3848
I1
sS'rel'
p3849
I427
sS'rem'
p3850
I1571
sS'reb'
p3851
I27
sS'rec'
p3852
I714
sS'rea'
p3853
I135
sS'ref'
p3854
I358
sS'reg'
p3855
I931
sS'red'
p3856
I203
sS'bac'
p3857
I19
sS'o\xc3\xa9'
p3858
I19
sS'o\xc3\xa8'
p3859
I22
sS'o\xc3\xab'
p3860
I9
sS'o\xc3\xaa'
p3861
I37
sS'nf\xc3'
p3862
I47
sS'ych'
p3863
I2
sS'o\xc3\xaf'
p3864
I29
sS'loc'
p3865
I196
sS'eco'
p3866
I680
sS'\xa9nu'
p3867
I14
sS'ecl'
p3868
I2
sS'eck'
p3869
I1
sS'ui\xc3'
p3870
I146
sS'eci'
p3871
I61
sS'ech'
p3872
I55
sS'o\xc3\xb9'
p3873
I952
sS'ecu'
p3874
I100
sS'\xa9no'
p3875
I191
sS'que'
p3876
I9941
sS'\xa9ni'
p3877
I145
sS'ecq'
p3878
I5
sS'oxe'
p3879
I4
sS'qui'
p3880
I4859
sS'\xa9ne'
p3881
I53
sS'\xa9na'
p3882
I214
sS'quo'
p3883
I324
sS'heq'
p3884
I2
sS'lts'
p3885
I1
sS'o\xc3\x88'
p3886
I1
sS'lod'
p3887
I6
sS'ltu'
p3888
I5
sS'\xa9ld'
p3889
I1
sS'ltz'
p3890
I3
sS'yro'
p3891
I11
sS'put'
p3892
I162
sS'aou'
p3893
I9
sS'oxa'
p3894
I2
sS'vab'
p3895
I4
sS'lta'
p3896
I70
sS'mab'
p3897
I59
sS'lte'
p3898
I86
sS'yra'
p3899
I13
sS'mae'
p3900
I5
sS'lti'
p3901
I37
sS'lth'
p3902
I2
sS'lto'
p3903
I1
sS'aor'
p3904
I49
sS'eat'
p3905
I6
sS'vif'
p3906
I50
sS'lob'
p3907
I64
sS'hex'
p3908
I2
sS'mi\xc3'
p3909
I332
sS'mi\xc2'
p3910
I1
sS'arr'
p3911
I1323
sS'vag'
p3912
I197
sS'\xaav\xc3'
p3913
I12
sS'ihi'
p3914
I4
sS'lol'
p3915
I6
sS'mah'
p3916
I2
sS'art'
p3917
I1618
sS'oh\xc3'
p3918
I8
sS'mak'
p3919
I4
sS'aru'
p3920
I257
sS'\x89to'
p3921
I2
sS'\x89ti'
p3922
I64
sS'arw'
p3923
I32
sS'sde'
p3924
I9
sS'lop'
p3925
I124
sS'\x89ta'
p3926
I47
sS'loq'
p3927
I26
sS'n\xc3\x87'
p3928
I1
sS'\x89tr'
p3929
I1
sS'nut'
p3930
I229
sS'rci'
p3931
I162
sS'udr'
p3932
I205
sS'uds'
p3933
I39
sS'vid'
p3934
I281
sS'cyp'
p3935
I7
sS'ogy'
p3936
I1
sS'rsi'
p3937
I74
sS'ur\xc2'
p3938
I5
sS'ur\xc3'
p3939
I275
sS'ogu'
p3940
I57
sS'rse'
p3941
I224
sS'lou'
p3942
I498
sS'al'
p3943
I1
sS'rsa'
p3944
I273
sS'ogs'
p3945
I1
sS'ogr'
p3946
I64
sS'cyc'
p3947
I11
sS'ogl'
p3948
I2
sS'ogo'
p3949
I4
sS'uda'
p3950
I86
sS'cyg'
p3951
I7
sS'udg'
p3952
I4
sS'\xaane'
p3953
I61
sS'rce'
p3954
I835
sS'oge'
p3955
I147
sS'rsu'
p3956
I55
sS'udh'
p3957
I1
sS'udi'
p3958
I103
sS'oga'
p3959
I6
sS'rsq'
p3960
I509
sS'cym'
p3961
I2
sS'cyl'
p3962
I13
sS'uhm'
p3963
I9
sS'bei'
p3964
I19
sS'ben'
p3965
I17
sS'bel'
p3966
I261
sS'bec'
p3967
I94
sS'bea'
p3968
I373
sS'ym\xc3'
p3969
I9
sS'bed'
p3970
I5
sS'bee'
p3971
I6
sS'ybi'
p3972
I1
sS'\xa9ju'
p3973
I1
sS'ybo'
p3974
I1
sS'ber'
p3975
I255
sS'sec'
p3976
I428
sS'vau'
p3977
I125
sS'bet'
p3978
I6
sS'beu'
p3979
I53
sS'lly'
p3980
I10
sS'sea'
p3981
I229
sS'nqu'
p3982
I820
sS'hn\xc3'
p3983
I1
sS'ump'
p3984
I2
sS'\xa0un'
p3985
I9
sS'sen'
p3986
I948
sS'haw'
p3987
I1
sS'arj'
p3988
I2
sS'iba'
p3989
I53
sS'itt'
p3990
I221
sS'mij'
p3991
I7
sS'mim'
p3992
I4
sS'mil'
p3993
I1261
sS'mio'
p3994
I17
sS'n\xc3\xa9'
p3995
I1837
sS'mia'
p3996
I6
sS'nub'
p3997
I3
sS'mic'
p3998
I68
sS'mie'
p3999
I614
sS'si'
p4000
I1337
sS'mig'
p4001
I59
sS'mif'
p4002
I24
sS'als'
p4003
I17
sS'miz'
p4004
I1
sS'arn'
p4005
I121
sS'\xbblo'
p4006
I3
sS'miq'
p4007
I22
sS'mip'
p4008
I2
sS'mis'
p4009
I796
sS'mir'
p4010
I230
sS'miu'
p4011
I1
sS'mit'
p4012
I306
sS'asl'
p4013
I1
sS'\xafqu'
p4014
I16
sS'xor'
p4015
I4
sS'un\xc2'
p4016
I5
sS'wha'
p4017
I1
sS'pyr'
p4018
I10
sS'pyt'
p4019
I2
sS'sfo'
p4020
I114
sS'pyl'
p4021
I1
sS'eag'
p4022
I1
sS'sfi'
p4023
I7
sS'\xa8le'
p4024
I127
sS'sfe'
p4025
I1
sS'n\xc3\xa2'
p4026
I35
sS'awa'
p4027
I1
sS'sfa'
p4028
I61
sS'urd'
p4029
I521
sS'ure'
p4030
I3512
sS'urf'
p4031
I184
sS'urg'
p4032
I114
sS'cka'
p4033
I2
sS'ura'
p4034
I1542
sS'urb'
p4035
I68
sS'urc'
p4036
I76
sS'url'
p4037
I25
sS'urm'
p4038
I346
sS'urn'
p4039
I875
sS'uro'
p4040
I129
sS'urh'
p4041
I3
sS'uri'
p4042
I729
sS'rs\xc2'
p4043
I6
sS'rs\xc3'
p4044
I92
sS'urt'
p4045
I495
sS'ud\xc3'
p4046
I21
sS'urv'
p4047
I109
sS'hi'
p4048
I1
sS'urp'
p4049
I195
sS'urq'
p4050
I163
sS'urr'
p4051
I425
sS'urs'
p4052
I2929
sS'ury'
p4053
I11
sS'og\xc3'
p4054
I11
sS'\xc3\xb7a'
p4055
I1
sS'jav'
p4056
I7
sS'bub'
p4057
I1
sS'lu\xc3'
p4058
I10
sS'he\xc2'
p4059
I1
sS'zzo'
p4060
I1
sS'nge'
p4061
I1278
sS'bua'
p4062
I11
sS'\xa0gr'
p4063
I3
sS'nga'
p4064
I130
sS'eb\xc3'
p4065
I6
sS'ngl'
p4066
I287
sS'buf'
p4067
I19
sS'ngn'
p4068
I2
sS'ngo'
p4069
I120
sS'jar'
p4070
I73
sS'jas'
p4071
I3
sS'jap'
p4072
I21
sS'm\xc2\xa0'
p4073
I1
sS'ngt'
p4074
I476
sS'ngu'
p4075
I530
sS'jal'
p4076
I51
sS'jam'
p4077
I550
sS'jak'
p4078
I1
sS'ngr'
p4079
I40
sS'ngs'
p4080
I96
sS'\xa0go'
p4081
I3
sS'jad'
p4082
I17
sS'jab'
p4083
I2
sS'jac'
p4084
I9
sS'\x94te'
p4085
I2
sS'\xa0gi'
p4086
I1
sS'mga'
p4087
I1
sS'lsa'
p4088
I13
sS'et\xc3'
p4089
I374
sS'xia'
p4090
I2
sS'mgu'
p4091
I1
sS'mul'
p4092
I57
sS'edg'
p4093
I2
sS'\x89an'
p4094
I1
sS'liu'
p4095
I2
sS'aes'
p4096
I1
sS'irc'
p4097
I96
sS'qu'
p4098
I2996
sS'aet'
p4099
I3
sS'h'
p4100
I1
sS'lst'
p4101
I6
sS'vr\xc3'
p4102
I51
sS'sha'
p4103
I35
sS'tth'
p4104
I1
sS'she'
p4105
I3
sS'shi'
p4106
I4
sS'\xa0jo'
p4107
I2
sS'sho'
p4108
I18
sS'btu'
p4109
I3
sS'ebe'
p4110
I14
sS'eba'
p4111
I7
sS'ng\xc3'
p4112
I395
sS'ebo'
p4113
I167
sS'\x89te'
p4114
I1
sS'ebi'
p4115
I5
sS'psu'
p4116
I8
sS'bte'
p4117
I38
sS'ebu'
p4118
I5
sS'mot'
p4119
I350
sS'dmo'
p4120
I4
sS'bti'
p4121
I13
sS'id\xc3'
p4122
I451
sS'lup'
p4123
I25
sS'luq'
p4124
I6
sS'lur'
p4125
I110
sS'lus'
p4126
I2974
sS'lut'
p4127
I338
sS'em\xc3'
p4128
I38
sS'luv'
p4129
I9
sS'rgm'
p4130
I2
sS'lux'
p4131
I51
sS'\xb4da'
p4132
I10
sS'lua'
p4133
I43
sS'lub'
p4134
I9
sS'luc'
p4135
I33
sS'lue'
p4136
I118
sS'lug'
p4137
I8
sS'lui'
p4138
I2651
sS'lip'
p4139
I8
sS'lul'
p4140
I49
sS'lum'
p4141
I429
sS'lun'
p4142
I96
sS'ken'
p4143
I4
sS'jor'
p4144
I8
sS'jos'
p4145
I22
sS'jot'
p4146
I7
sS'jou'
p4147
I2133
sS'gta'
p4148
I10
sS'joy'
p4149
I13
sS'kee'
p4150
I4
sS'vra'
p4151
I505
sS'eun'
p4152
I392
sS'joe'
p4153
I1
sS'vre'
p4154
I805
sS'\x88ce'
p4155
I1
sS'tja'
p4156
I1
sS'joi'
p4157
I147
sS'vri'
p4158
I381
sS'jol'
p4159
I212
sS'ker'
p4160
I7
sS'jon'
p4161
I18
sS'gte'
p4162
I124
sS'etr'
p4163
I125
sS'ets'
p4164
I432
sS'ett'
p4165
I2996
sS'etu'
p4166
I8
sS'etz'
p4167
I2
sS'llu'
p4168
I355
sS'\xbbti'
p4169
I3
sS'eue'
p4170
I213
sS'tla'
p4171
I66
sS'eta'
p4172
I262
sS'tle'
p4173
I2
sS'ete'
p4174
I270
sS'eth'
p4175
I7
sS'eti'
p4176
I1122
sS'etn'
p4177
I1
sS'eto'
p4178
I335
sS'etl'
p4179
I2
sS'rps'
p4180
I175
sS'rpr'
p4181
I188
sS'rpu'
p4182
I8
sS'ucr'
p4183
I37
sS'omt'
p4184
I28
sS'uic'
p4185
I24
sS'ce'
p4186
I2930
sS'jik'
p4187
I1
sS'rpa'
p4188
I6
sS'\xaelo'
p4189
I31
sS'uce'
p4190
I190
sS'rpe'
p4191
I82
sS'uca'
p4192
I23
sS'\xabil'
p4193
I1
sS'uco'
p4194
I162
sS'rph'
p4195
I17
sS'ucl'
p4196
I11
sS'sbr'
p4197
I3
sS'rpl'
p4198
I8
sS'uci'
p4199
I68
sS'uch'
p4200
I1008
sS'inz'
p4201
I152
sS'bbi'
p4202
I1
sS'yau'
p4203
I45
sS'\xa9su'
p4204
I44
sS'yam'
p4205
I8
sS'yal'
p4206
I25
sS'\xa9si'
p4207
I378
sS'yan'
p4208
I364
sS'yai'
p4209
I526
sS'pia'
p4210
I25
sS'yad'
p4211
I1
sS'yag'
p4212
I97
sS'bbs'
p4213
I1
sS'inv'
p4214
I215
sS'\xa9se'
p4215
I454
sS'rv\xc3'
p4216
I64
sS'oth'
p4217
I58
sS'oti'
p4218
I169
sS'pic'
p4219
I75
sS'\xa0ot'
p4220
I1
sS'oto'
p4221
I48
sS'ota'
p4222
I116
sS'lga'
p4223
I10
sS'ote'
p4224
I236
sS'inq'
p4225
I624
sS's\xc3\xae'
p4226
I3
sS'otz'
p4227
I1
sS'ile'
p4228
I995
sS'pif'
p4229
I4
sS'hmk'
p4230
I9
sS'lgr'
p4231
I144
sS'ilb'
p4232
I1
sS'otr'
p4233
I523
sS'ots'
p4234
I409
sS'ott'
p4235
I582
sS'otu'
p4236
I7
sS'lgu'
p4237
I25
sS'\xa9ma'
p4238
I45
sS'ysi'
p4239
I31
sS'tsu'
p4240
I1
sS'\xa9me'
p4241
I398
sS'ysm'
p4242
I3
sS'uip'
p4243
I91
sS'ph\xc3'
p4244
I141
sS'hoc'
p4245
I111
sS'ysa'
p4246
I21
sS'isr'
p4247
I3
sS'rbr'
p4248
I103
sS'\xa9mo'
p4249
I216
sS'rbo'
p4250
I116
sS'rpo'
p4251
I107
sS'\xa7al'
p4252
I9
sS'\xa9mu'
p4253
I39
sS'rbi'
p4254
I56
sS'yss'
p4255
I9
sS'rbe'
p4256
I156
sS'unz'
p4257
I4
sS'rba'
p4258
I46
sS'yst'
p4259
I65
sS'wki'
p4260
I1
sS'va'
p4261
I152
sS'rvu'
p4262
I36
sS'edm'
p4263
I4
sS'vi'
p4264
I8
sS'\xabcr'
p4265
I1
sS'bb\xc3'
p4266
I2
sS'avr'
p4267
I56
sS'pip'
p4268
I34
sS'avo'
p4269
I897
sS'\xc2\xa0y'
p4270
I1
sS'avi'
p4271
I532
sS'piq'
p4272
I79
sS'\xa9s\xc3'
p4273
I3
sS'ave'
p4274
I3002
sS'ava'
p4275
I4402
sS'pis'
p4276
I141
sS'onv'
p4277
I235
sS'ilw'
p4278
I1
sS'eph'
p4279
I19
sS'ilt'
p4280
I6
sS'piu'
p4281
I1
sS'l\xc2\xa0'
p4282
I6
sS'rp\xc3'
p4283
I8
sS'ilu'
p4284
I649
sS'uc\xc3'
p4285
I6
sS'noe'
p4286
I79
sS'coe'
p4287
I296
sS'inc'
p4288
I751
sS'uqu'
p4289
I130
sS'une'
p4290
I6656
sS'\xa2tu'
p4291
I7
sS'xoc'
p4292
I2
sS'phi'
p4293
I99
sS'pho'
p4294
I98
sS'\xa2ts'
p4295
I12
sS'\xa2tr'
p4296
I157
sS'ys\xc3'
p4297
I12
sS'pha'
p4298
I103
sS'iot'
p4299
I64
sS'ios'
p4300
I47
sS'ior'
p4301
I16
sS'phe'
p4302
I65
sS'iop'
p4303
I5
sS'\xa2te'
p4304
I86
sS'ion'
p4305
I3648
sS'iom'
p4306
I54
sS'iol'
p4307
I207
sS'\xa2ta'
p4308
I69
sS'coh'
p4309
I23
sS'phr'
p4310
I84
sS'\xa2to'
p4311
I21
sS'iod'
p4312
I10
sS'\xa2ti'
p4313
I91
sS'\xbbta'
p4314
I51
sS'du\xc2'
p4315
I7
sS'pht'
p4316
I2
sS'dat'
p4317
I59
sS'\xa7on'
p4318
I392
sS'off'
p4319
I248
sS'ofe'
p4320
I138
sS'i'
p4321
I14
sS'lg\xc3'
p4322
I2
sS'ot\xc2'
p4323
I1
sS'ofi'
p4324
I66
sS'ofo'
p4325
I241
sS'ofl'
p4326
I5
sS'\xa9i\xc3'
p4327
I2
sS'unn'
p4328
I18
sS'ofu'
p4329
I5
sS'nox'
p4330
I6
sS'uno'
p4331
I4
sS'hm\xc3'
p4332
I4
sS'avu'
p4333
I14
sS'lzo'
p4334
I1
sS'xel'
p4335
I4
sS'xem'
p4336
I91
sS'das'
p4337
I2
sS'j\xc3\xa0'
p4338
I332
sS'es\xc2'
p4339
I14
sS'tch'
p4340
I7
sS'xes'
p4341
I26
sS'j\xc3\xa9'
p4342
I9
sS'\xa0va'
p4343
I3
sS'adw'
p4344
I1
sS'adu'
p4345
I11
sS'adr'
p4346
I175
sS'wed'
p4347
I1
sS'\xa0vi'
p4348
I2
sS'gma'
p4349
I8
sS'oes'
p4350
I2
sS'wen'
p4351
I1
sS'gme'
p4352
I55
sS'noq'
p4353
I1
sS'wes'
p4354
I2
sS'wer'
p4355
I3
sS'add'
p4356
I14
sS'ade'
p4357
I704
sS'ska'
p4358
I2
sS'adc'
p4359
I1
sS'ada'
p4360
I598
sS'ado'
p4361
I99
sS'sko'
p4362
I1
sS'adm'
p4363
I144
sS'ski'
p4364
I2
sS'adh'
p4365
I14
sS'adi'
p4366
I456
sS'nvu'
p4367
I18
sS'nvr'
p4368
I5
sS'et\xc2'
p4369
I9
sS'nd\xc3'
p4370
I141
sS'nd\xc2'
p4371
I2
sS'cs\xc2'
p4372
I1
sS'nve'
p4373
I332
sS'nva'
p4374
I80
sS'nvo'
p4375
I241
sS'xue'
p4376
I7
sS'igm'
p4377
I5
sS'nvi'
p4378
I290
sS'\xa2bo'
p4379
I13
sS'umh'
p4380
I1
sS'\xa2bl'
p4381
I18
sS'd\xc3\xbb'
p4382
I125
sS'mhk'
p4383
I1
sS'oaz'
p4384
I1
sS'xsa'
p4385
I1
sS'dge'
p4386
I4
sS'\xc3\x8at'
p4387
I6
sS'\x87ai'
p4388
I1
sS'hyg'
p4389
I2
sS'\xc3\xafq'
p4390
I16
sS'\xc3\xafs'
p4391
I18
sS'\xc3\xafr'
p4392
I5
sS'\xc2\xa0a'
p4393
I128
sS'nje'
p4394
I7
sS'ubu'
p4395
I3
sS'njo'
p4396
I43
sS'\xc3\xafa'
p4397
I1
sS'roo'
p4398
I8
sS'\xc3\xafe'
p4399
I17
sS'\xc3\xafd'
p4400
I12
sS'nju'
p4401
I32
sS'\xc3\xaff'
p4402
I6
sS'h\xc3\xa2'
p4403
I128
sS'\xc3\xafn'
p4404
I4
sS'\xa9op'
p4405
I3
sS'esu'
p4406
I106
sS'est'
p4407
I3952
sS'ess'
p4408
I2134
sS'ccu'
p4409
I305
sS'esq'
p4410
I209
sS'esp'
p4411
I628
sS'\xa0p\xc3'
p4412
I2
sS'nfu'
p4413
I54
sS'ahr'
p4414
I1
sS'tma'
p4415
I47
sS'ese'
p4416
I11
sS'esd'
p4417
I20
sS'esc'
p4418
I471
sS'esb'
p4419
I6
sS'esa'
p4420
I48
sS'eso'
p4421
I267
sS'esm'
p4422
I2
sS'esl'
p4423
I4
sS'ioc'
p4424
I45
sS'esi'
p4425
I1
sS'nfr'
p4426
I23
sS'\xa7\xc3\xa0'
p4427
I10
sS'\xa9qu'
p4428
I193
sS'm\xc3\x89'
p4429
I3
sS'oyp'
p4430
I1
sS'if\xc3'
p4431
I36
sS'\x8atr'
p4432
I2
sS'\xa0fi'
p4433
I4
sS'\x8ate'
p4434
I4
sS'\xa7\xc3\xbb'
p4435
I4
sS'adv'
p4436
I10
sS'ndi'
p4437
I1675
sS'm\xc3\xae'
p4438
I7
sS'\xaffs'
p4439
I1
sS'm\xc3\xaa'
p4440
I1125
sS'ndo'
p4441
I215
sS'm\xc3\xa8'
p4442
I715
sS'nda'
p4443
I2125
sS'vo\xc3'
p4444
I20
sS'nde'
p4445
I2190
sS'm\xc3\xa2'
p4446
I102
sS'\xa0hu'
p4447
I2
sS'kru'
p4448
I1
sS'ndy'
p4449
I6
sS'm\xc3\xbb'
p4450
I19
sS'nds'
p4451
I386
sS'ndr'
p4452
I1531
sS'ndu'
p4453
I575
sS'\xa0he'
p4454
I18
sS'ouk'
p4455
I6
sS'duc'
p4456
I54
sS'owi'
p4457
I1
sS'ubb'
p4458
I1
sS'owe'
p4459
I4
sS'\xabvo'
p4460
I3
sS'owa'
p4461
I1
sS'hou'
p4462
I124
sS'\xabvi'
p4463
I1
sS'\x89di'
p4464
I1
sS'lfa'
p4465
I7
sS'r\xc2\xbb'
p4466
I1
sS'oek'
p4467
I1
sS'yrh'
p4468
I2
sS'yri'
p4469
I30
sS'vah'
p4470
I45
sS'vai'
p4471
I6627
sS'van'
p4472
I1649
sS'rcy'
p4473
I1
sS'val'
p4474
I383
sS'\xa9la'
p4475
I162
sS'rct'
p4476
I23
sS'\xa9lo'
p4477
I101
sS'pi\xc3'
p4478
I328
sS'yre'
p4479
I16
sS'rcr'
p4480
I2
sS'\xa9li'
p4481
I296
sS'rcl'
p4482
I38
sS'\xa0\xc3\xa2'
p4483
I4
sS'rco'
p4484
I81
sS'rch'
p4485
I976
sS'gra'
p4486
I1481
sS'rck'
p4487
I1
sS'var'
p4488
I166
sS'vas'
p4489
I173
sS'vap'
p4490
I83
sS'yrs'
p4491
I5
sS'yrt'
p4492
I3
sS'rca'
p4493
I75
sS'vat'
p4494
I123
sS'in\xc3'
p4495
I366
sS'eai'
p4496
I471
sS'eak'
p4497
I3
sS'eam'
p4498
I48
sS'ahs'
p4499
I7
sS'ean'
p4500
I259
sS'bur'
p4501
I41
sS'bus'
p4502
I65
sS'eab'
p4503
I1
sS'buv'
p4504
I58
sS'ead'
p4505
I1
sS'but'
p4506
I154
sS'\xa0\xc3\xa7'
p4507
I1
sS'bui'
p4508
I16
sS'bun'
p4509
I8
sS'eu\xc3'
p4510
I16
sS'bul'
p4511
I53
sS'bum'
p4512
I2
sS'\xa8pr'
p4513
I2
sS'buc'
p4514
I7
sS'eas'
p4515
I5
sS'\xa9r\xc3'
p4516
I193
sS'eau'
p4517
I3332
sS'bug'
p4518
I1
sS'bud'
p4519
I4
sS'bue'
p4520
I9
sS'lfu'
p4521
I7
sS'xac'
p4522
I39
sS'\xc2\xa0'
p4523
I2
sS'dme'
p4524
I30
sS'hop'
p4525
I15
sS'dmi'
p4526
I114
sS'j'
p4527
I1069
sS'\xc2\xab'
p4528
I531
sS'lve'
p4529
I16
sS'\xc2\xb0'
p4530
I94
sS'\xaal\xc3'
p4531
I21
sS'ub\xc3'
p4532
I10
sS'xyr'
p4533
I2
sS'lvi'
p4534
I2
sS'\xc2\xbb'
p4535
I522
sS'pih'
p4536
I2
sS'pil'
p4537
I92
sS'\xa9l\xc3'
p4538
I134
sS'pin'
p4539
I285
sS'pio'
p4540
I45
sS'int'
p4541
I2281
sS'inu'
p4542
I587
sS'mys'
p4543
I43
sS'myr'
p4544
I22
sS'pid'
p4545
I199
sS'pie'
p4546
I557
sS'inr'
p4547
I43
sS'ins'
p4548
I2267
sS'inm'
p4549
I2
sS'inn'
p4550
I31
sS'ino'
p4551
I72
sS'inh'
p4552
I9
sS'ini'
p4553
I711
sS'inj'
p4554
I32
sS'ind'
p4555
I511
sS'ine'
p4556
I3583
sS'inf'
p4557
I150
sS'ing'
p4558
I1013
sS'pit'
p4559
I1013
sS'ina'
p4560
I629
sS'piv'
p4561
I3
sS'rc\xc3'
p4562
I60
sS'ymb'
p4563
I3
sS'oad'
p4564
I3
sS'eor'
p4565
I2
sS'ild'
p4566
I3
sS'oal'
p4567
I5
sS'ayr'
p4568
I8
sS'oen'
p4569
I2
sS'al\xc2'
p4570
I3
sS'oas'
p4571
I1
sS'oar'
p4572
I9
sS'oaq'
p4573
I1
sS'nra'
p4574
I36
sS'yme'
p4575
I1
sS'ubt'
p4576
I2
sS'\xa0\xc3\x8a'
p4577
I1
sS'rqu'
p4578
I420
sS'eou'
p4579
I1
sS'ubr'
p4580
I12
sS'ubs'
p4581
I17
sS'\xa0d\xc3'
p4582
I3
sS'\xaale'
p4583
I69
sS'ube'
p4584
I48
sS'rey'
p4585
I2
sS'\xaala'
p4586
I23
sS'uba'
p4587
I53
sS'lv\xc3'
p4588
I8
sS'bu\xc3'
p4589
I21
sS'ubl'
p4590
I458
sS'ubm'
p4591
I8
sS'\xaalo'
p4592
I12
sS'ubo'
p4593
I24
sS'\xaali'
p4594
I1
sS'ubi'
p4595
I70
sS'l\xc3\x88'
p4596
I2
sS'\xa9ry'
p4597
I6
sS'l\xc3\xb4'
p4598
I7
sS'hni'
p4599
I3
sS'eoi'
p4600
I143
sS'eon'
p4601
I34
sS'hog'
p4602
I1
sS'\xa9ri'
p4603
I917
sS'l\xc3\xa2'
p4604
I258
sS'uor'
p4605
I2
sS'l\xc3\xa0'
p4606
I1302
sS'\xa9ro'
p4607
I153
sS'l\xc3\xae'
p4608
I1
sS'\xa9ra'
p4609
I573
sS'\xabca'
p4610
I2
sS'l\xc3\xaa'
p4611
I36
sS'\xa9re'
p4612
I244
sS'l\xc3\xa8'
p4613
I432
sS'l\xc3\xa9'
p4614
I1843
s.